Archive member included to satisfy reference by file (symbol)

c:/program files/microchip/xc32/v4.60/bin/bin/../../lib/gcc/pic32c/8.3.1/../../../../pic32c/lib/thumb/v7e-m+fp/hard\libpic32c.a(data_init.o)
                              build/default/debug/_ext/1171490990/startup_xc32.o (__pic32c_data_initialization)
c:/program files/microchip/xc32/v4.60/bin/bin/../../lib/gcc/pic32c/8.3.1/../../../../pic32c/lib/thumb/v7e-m+fp/hard\libc-size-musl.a(memcpy.o)
                              build/default/debug/_ext/1593096446/plib_nvmctrl.o (memcpy)
c:/program files/microchip/xc32/v4.60/bin/bin/../../lib/gcc/pic32c/8.3.1/../../../../pic32c/lib/thumb/v7e-m+fp/hard\libc-size-musl.a(memset.o)
                              build/default/debug/_ext/404212886/FreeRTOS_tasks.o (memset)
c:/program files/microchip/xc32/v4.60/bin/bin/../../lib/gcc/pic32c/8.3.1/../../../../pic32c/lib/thumb/v7e-m+fp/hard\libg-musl.a(__libc_start_main.o)
                              build/default/debug/_ext/1171490990/startup_xc32.o (__libc_init_array)
c:/program files/microchip/xc32/v4.60/bin/bin/../../lib/gcc/pic32c/8.3.1/../../../../pic32c/lib/thumb/v7e-m+fp/hard\libg-musl.a(libc.o)
                              c:/program files/microchip/xc32/v4.60/bin/bin/../../lib/gcc/pic32c/8.3.1/../../../../pic32c/lib/thumb/v7e-m+fp/hard\libg-musl.a(__libc_start_main.o) (__progname_full)
c:/program files/microchip/xc32/v4.60/bin/bin/../../lib/gcc/pic32c/8.3.1/../../../../pic32c/lib/thumb/v7e-m+fp/hard\libg-musl.a(__sio_printf_nu.o)
                              (_printf_nu)
c:/program files/microchip/xc32/v4.60/bin/bin/../../lib/gcc/pic32c/8.3.1/../../../../pic32c/lib/thumb/v7e-m+fp/hard\libg-musl.a(__fmt_u.o)
                              c:/program files/microchip/xc32/v4.60/bin/bin/../../lib/gcc/pic32c/8.3.1/../../../../pic32c/lib/thumb/v7e-m+fp/hard\libg-musl.a(__sio_printf_nu.o) (__fmt_u_needed)
c:/program files/microchip/xc32/v4.60/bin/bin/../../lib/gcc/pic32c/8.3.1/../../../../pic32c/lib/thumb/v7e-m+fp/hard\libg-musl.a(__pop_int.o)
                              c:/program files/microchip/xc32/v4.60/bin/bin/../../lib/gcc/pic32c/8.3.1/../../../../pic32c/lib/thumb/v7e-m+fp/hard\libg-musl.a(__sio_printf_nu.o) (__pop_int_needed)
c:/program files/microchip/xc32/v4.60/bin/bin/../../lib/gcc/pic32c/8.3.1/../../../../pic32c/lib/thumb/v7e-m+fp/hard\libg-musl.a(__pop_ptr.o)
                              c:/program files/microchip/xc32/v4.60/bin/bin/../../lib/gcc/pic32c/8.3.1/../../../../pic32c/lib/thumb/v7e-m+fp/hard\libg-musl.a(__sio_printf_nu.o) (__pop_ptr_needed)
c:/program files/microchip/xc32/v4.60/bin/bin/../../lib/gcc/pic32c/8.3.1/../../../../pic32c/lib/thumb/v7e-m+fp/hard\libg-musl.a(__printf_core.o)
                              c:/program files/microchip/xc32/v4.60/bin/bin/../../lib/gcc/pic32c/8.3.1/../../../../pic32c/lib/thumb/v7e-m+fp/hard\libg-musl.a(__fmt_u.o) (__pad)
c:/program files/microchip/xc32/v4.60/bin/bin/../../lib/gcc/pic32c/8.3.1/../../../../pic32c/lib/thumb/v7e-m+fp/hard\libg-musl.a(stdin.o)
                              build/default/debug/_ext/1171490990/initialization.o (_stdin)
c:/program files/microchip/xc32/v4.60/bin/bin/../../lib/gcc/pic32c/8.3.1/../../../../pic32c/lib/thumb/v7e-m+fp/hard\libg-musl.a(stdout.o)
                              build/default/debug/_ext/1171490990/initialization.o (_stdout)
c:/program files/microchip/xc32/v4.60/bin/bin/../../lib/gcc/pic32c/8.3.1/../../../../pic32c/lib/thumb/v7e-m+fp/hard\libg-musl.a(puts.o)
                              build/default/debug/_ext/1360937237/main.o (puts)
c:/program files/microchip/xc32/v4.60/bin/bin/../../lib/gcc/pic32c/8.3.1/../../../../pic32c/lib/thumb/v7e-m+fp/hard\libg-musl.a(setbuf.o)
                              build/default/debug/_ext/1171490990/initialization.o (setbuf)
c:/program files/microchip/xc32/v4.60/bin/bin/../../lib/gcc/pic32c/8.3.1/../../../../pic32c/lib/thumb/v7e-m+fp/hard\libg-musl.a(atoi.o)
                              c:/program files/microchip/xc32/v4.60/bin/bin/../../lib/gcc/pic32c/8.3.1/../../../../pic32c/lib/thumb/v7e-m+fp/hard\libg-musl.a(__printf_core.o) (atoi)
c:/program files/microchip/xc32/v4.60/bin/bin/../../lib/gcc/pic32c/8.3.1/../../../../pic32c/lib/thumb/v7e-m+fp/hard\libg-musl.a(tolower.o)
                              c:/program files/microchip/xc32/v4.60/bin/bin/../../lib/gcc/pic32c/8.3.1/../../../../pic32c/lib/thumb/v7e-m+fp/hard\libg-musl.a(__printf_core.o) (tolower)
c:/program files/microchip/xc32/v4.60/bin/bin/../../lib/gcc/pic32c/8.3.1/../../../../pic32c/lib/thumb/v7e-m+fp/hard\libg-musl.a(__environ.o)
                              c:/program files/microchip/xc32/v4.60/bin/bin/../../lib/gcc/pic32c/8.3.1/../../../../pic32c/lib/thumb/v7e-m+fp/hard\libg-musl.a(__libc_start_main.o) (__environ)
c:/program files/microchip/xc32/v4.60/bin/bin/../../lib/gcc/pic32c/8.3.1/../../../../pic32c/lib/thumb/v7e-m+fp/hard\libg-musl.a(__errno_location.o)
                              c:/program files/microchip/xc32/v4.60/bin/bin/../../lib/gcc/pic32c/8.3.1/../../../../pic32c/lib/thumb/v7e-m+fp/hard\libg-musl.a(__printf_core.o) (__errno_val)
c:/program files/microchip/xc32/v4.60/bin/bin/../../lib/gcc/pic32c/8.3.1/../../../../pic32c/lib/thumb/v7e-m+fp/hard\libg-musl.a(__int_vfprintf.o)
                              c:/program files/microchip/xc32/v4.60/bin/bin/../../lib/gcc/pic32c/8.3.1/../../../../pic32c/lib/thumb/v7e-m+fp/hard\libg-musl.a(__sio_printf_nu.o) (__vfprintf)
c:/program files/microchip/xc32/v4.60/bin/bin/../../lib/gcc/pic32c/8.3.1/../../../../pic32c/lib/thumb/v7e-m+fp/hard\libg-musl.a(fputs.o)
                              c:/program files/microchip/xc32/v4.60/bin/bin/../../lib/gcc/pic32c/8.3.1/../../../../pic32c/lib/thumb/v7e-m+fp/hard\libg-musl.a(puts.o) (fputs)
c:/program files/microchip/xc32/v4.60/bin/bin/../../lib/gcc/pic32c/8.3.1/../../../../pic32c/lib/thumb/v7e-m+fp/hard\libg-musl.a(__cvt_u.o)
                              c:/program files/microchip/xc32/v4.60/bin/bin/../../lib/gcc/pic32c/8.3.1/../../../../pic32c/lib/thumb/v7e-m+fp/hard\libg-musl.a(__fmt_u.o) (__cvt_u)
c:/program files/microchip/xc32/v4.60/bin/bin/../../lib/gcc/pic32c/8.3.1/../../../../pic32c/lib/thumb/v7e-m+fp/hard\libg-musl.a(__io_init_needed.o)
                              c:/program files/microchip/xc32/v4.60/bin/bin/../../lib/gcc/pic32c/8.3.1/../../../../pic32c/lib/thumb/v7e-m+fp/hard\libg-musl.a(stdout.o) (__io_init_needed)
c:/program files/microchip/xc32/v4.60/bin/bin/../../lib/gcc/pic32c/8.3.1/../../../../pic32c/lib/thumb/v7e-m+fp/hard\libg-musl.a(__io_rw_needed.o)
                              c:/program files/microchip/xc32/v4.60/bin/bin/../../lib/gcc/pic32c/8.3.1/../../../../pic32c/lib/thumb/v7e-m+fp/hard\libg-musl.a(stdin.o) (__io_rw_needed)
c:/program files/microchip/xc32/v4.60/bin/bin/../../lib/gcc/pic32c/8.3.1/../../../../pic32c/lib/thumb/v7e-m+fp/hard\libg-musl.a(__pop_float.o)
                              c:/program files/microchip/xc32/v4.60/bin/bin/../../lib/gcc/pic32c/8.3.1/../../../../pic32c/lib/thumb/v7e-m+fp/hard\libg-musl.a(__printf_core.o) (__pop_float)
c:/program files/microchip/xc32/v4.60/bin/bin/../../lib/gcc/pic32c/8.3.1/../../../../pic32c/lib/thumb/v7e-m+fp/hard\libg-musl.a(__stdio_read.o)
                              c:/program files/microchip/xc32/v4.60/bin/bin/../../lib/gcc/pic32c/8.3.1/../../../../pic32c/lib/thumb/v7e-m+fp/hard\libg-musl.a(stdin.o) (__stdio_read)
c:/program files/microchip/xc32/v4.60/bin/bin/../../lib/gcc/pic32c/8.3.1/../../../../pic32c/lib/thumb/v7e-m+fp/hard\libg-musl.a(__towrite_rw.o)
                              c:/program files/microchip/xc32/v4.60/bin/bin/../../lib/gcc/pic32c/8.3.1/../../../../pic32c/lib/thumb/v7e-m+fp/hard\libg-musl.a(__io_rw_needed.o) (__towrite_rw_needed)
c:/program files/microchip/xc32/v4.60/bin/bin/../../lib/gcc/pic32c/8.3.1/../../../../pic32c/lib/thumb/v7e-m+fp/hard\libg-musl.a(fwrite.o)
                              c:/program files/microchip/xc32/v4.60/bin/bin/../../lib/gcc/pic32c/8.3.1/../../../../pic32c/lib/thumb/v7e-m+fp/hard\libg-musl.a(fputs.o) (fwrite)
c:/program files/microchip/xc32/v4.60/bin/bin/../../lib/gcc/pic32c/8.3.1/../../../../pic32c/lib/thumb/v7e-m+fp/hard\libg-musl.a(putc.o)
                              c:/program files/microchip/xc32/v4.60/bin/bin/../../lib/gcc/pic32c/8.3.1/../../../../pic32c/lib/thumb/v7e-m+fp/hard\libg-musl.a(puts.o) (putc_unlocked)
c:/program files/microchip/xc32/v4.60/bin/bin/../../lib/gcc/pic32c/8.3.1/../../../../pic32c/lib/thumb/v7e-m+fp/hard\libg-musl.a(setvbuf.o)
                              c:/program files/microchip/xc32/v4.60/bin/bin/../../lib/gcc/pic32c/8.3.1/../../../../pic32c/lib/thumb/v7e-m+fp/hard\libg-musl.a(setbuf.o) (setvbuf)
c:/program files/microchip/xc32/v4.60/bin/bin/../../lib/gcc/pic32c/8.3.1/../../../../pic32c/lib/thumb/v7e-m+fp/hard\libg-musl.a(readv.o)
                              c:/program files/microchip/xc32/v4.60/bin/bin/../../lib/gcc/pic32c/8.3.1/../../../../pic32c/lib/thumb/v7e-m+fp/hard\libg-musl.a(__stdio_read.o) (readv)
c:/program files/microchip/xc32/v4.60/bin/bin/../../lib/gcc/pic32c/8.3.1/../../../../pic32c/lib/thumb/v7e-m+fp/hard\libg-musl.a(__fopen_rw.o)
                              c:/program files/microchip/xc32/v4.60/bin/bin/../../lib/gcc/pic32c/8.3.1/../../../../pic32c/lib/thumb/v7e-m+fp/hard\libg-musl.a(__io_rw_needed.o) (__fopen_rw_needed)
c:/program files/microchip/xc32/v4.60/bin/bin/../../lib/gcc/pic32c/8.3.1/../../../../pic32c/lib/thumb/v7e-m+fp/hard\libg-musl.a(__ftello_rw.o)
                              c:/program files/microchip/xc32/v4.60/bin/bin/../../lib/gcc/pic32c/8.3.1/../../../../pic32c/lib/thumb/v7e-m+fp/hard\libg-musl.a(__io_rw_needed.o) (__ftello_adj_rw_needed)
c:/program files/microchip/xc32/v4.60/bin/bin/../../lib/gcc/pic32c/8.3.1/../../../../pic32c/lib/thumb/v7e-m+fp/hard\libg-musl.a(__init_stdio.o)
                              c:/program files/microchip/xc32/v4.60/bin/bin/../../lib/gcc/pic32c/8.3.1/../../../../pic32c/lib/thumb/v7e-m+fp/hard\libg-musl.a(__io_init_needed.o) (__init_stdio_needed)
c:/program files/microchip/xc32/v4.60/bin/bin/../../lib/gcc/pic32c/8.3.1/../../../../pic32c/lib/thumb/v7e-m+fp/hard\libg-musl.a(__io_buf_needed.o)
                              c:/program files/microchip/xc32/v4.60/bin/bin/../../lib/gcc/pic32c/8.3.1/../../../../pic32c/lib/thumb/v7e-m+fp/hard\libg-musl.a(__io_rw_needed.o) (__io_buf_needed)
c:/program files/microchip/xc32/v4.60/bin/bin/../../lib/gcc/pic32c/8.3.1/../../../../pic32c/lib/thumb/v7e-m+fp/hard\libg-musl.a(__io_file_needed.o)
                              c:/program files/microchip/xc32/v4.60/bin/bin/../../lib/gcc/pic32c/8.3.1/../../../../pic32c/lib/thumb/v7e-m+fp/hard\libg-musl.a(__io_init_needed.o) (__io_file_needed)
c:/program files/microchip/xc32/v4.60/bin/bin/../../lib/gcc/pic32c/8.3.1/../../../../pic32c/lib/thumb/v7e-m+fp/hard\libg-musl.a(__io_std_needed.o)
                              c:/program files/microchip/xc32/v4.60/bin/bin/../../lib/gcc/pic32c/8.3.1/../../../../pic32c/lib/thumb/v7e-m+fp/hard\libg-musl.a(__io_buf_needed.o) (__io_std_needed)
c:/program files/microchip/xc32/v4.60/bin/bin/../../lib/gcc/pic32c/8.3.1/../../../../pic32c/lib/thumb/v7e-m+fp/hard\libg-musl.a(__out.o)
                              c:/program files/microchip/xc32/v4.60/bin/bin/../../lib/gcc/pic32c/8.3.1/../../../../pic32c/lib/thumb/v7e-m+fp/hard\libg-musl.a(__fopen_rw.o) (__stdio_write_unbuffered)
c:/program files/microchip/xc32/v4.60/bin/bin/../../lib/gcc/pic32c/8.3.1/../../../../pic32c/lib/thumb/v7e-m+fp/hard\libg-musl.a(__putc.o)
                              c:/program files/microchip/xc32/v4.60/bin/bin/../../lib/gcc/pic32c/8.3.1/../../../../pic32c/lib/thumb/v7e-m+fp/hard\libg-musl.a(__io_buf_needed.o) (__putc_needed)
c:/program files/microchip/xc32/v4.60/bin/bin/../../lib/gcc/pic32c/8.3.1/../../../../pic32c/lib/thumb/v7e-m+fp/hard\libg-musl.a(__stderr.o)
                              c:/program files/microchip/xc32/v4.60/bin/bin/../../lib/gcc/pic32c/8.3.1/../../../../pic32c/lib/thumb/v7e-m+fp/hard\libg-musl.a(__io_std_needed.o) (__init_stderr_needed)
c:/program files/microchip/xc32/v4.60/bin/bin/../../lib/gcc/pic32c/8.3.1/../../../../pic32c/lib/thumb/v7e-m+fp/hard\libg-musl.a(__stdio_close.o)
                              c:/program files/microchip/xc32/v4.60/bin/bin/../../lib/gcc/pic32c/8.3.1/../../../../pic32c/lib/thumb/v7e-m+fp/hard\libg-musl.a(__fopen_rw.o) (__stdio_close_rw)
c:/program files/microchip/xc32/v4.60/bin/bin/../../lib/gcc/pic32c/8.3.1/../../../../pic32c/lib/thumb/v7e-m+fp/hard\libg-musl.a(__stdio_exit.o)
                              c:/program files/microchip/xc32/v4.60/bin/bin/../../lib/gcc/pic32c/8.3.1/../../../../pic32c/lib/thumb/v7e-m+fp/hard\libg-musl.a(__io_buf_needed.o) (__stdio_exit_needed)
c:/program files/microchip/xc32/v4.60/bin/bin/../../lib/gcc/pic32c/8.3.1/../../../../pic32c/lib/thumb/v7e-m+fp/hard\libg-musl.a(__stdio_write.o)
                              c:/program files/microchip/xc32/v4.60/bin/bin/../../lib/gcc/pic32c/8.3.1/../../../../pic32c/lib/thumb/v7e-m+fp/hard\libg-musl.a(setvbuf.o) (__stdio_write_buffered)
c:/program files/microchip/xc32/v4.60/bin/bin/../../lib/gcc/pic32c/8.3.1/../../../../pic32c/lib/thumb/v7e-m+fp/hard\libg-musl.a(__stdout.o)
                              c:/program files/microchip/xc32/v4.60/bin/bin/../../lib/gcc/pic32c/8.3.1/../../../../pic32c/lib/thumb/v7e-m+fp/hard\libg-musl.a(__io_std_needed.o) (__init_stdout_needed)
c:/program files/microchip/xc32/v4.60/bin/bin/../../lib/gcc/pic32c/8.3.1/../../../../pic32c/lib/thumb/v7e-m+fp/hard\libg-musl.a(__towrite.o)
                              c:/program files/microchip/xc32/v4.60/bin/bin/../../lib/gcc/pic32c/8.3.1/../../../../pic32c/lib/thumb/v7e-m+fp/hard\libg-musl.a(__stdio_write.o) (__towrite)
c:/program files/microchip/xc32/v4.60/bin/bin/../../lib/gcc/pic32c/8.3.1/../../../../pic32c/lib/thumb/v7e-m+fp/hard\libg-musl.a(writev.o)
                              c:/program files/microchip/xc32/v4.60/bin/bin/../../lib/gcc/pic32c/8.3.1/../../../../pic32c/lib/thumb/v7e-m+fp/hard\libg-musl.a(__stdio_write.o) (writev)
c:/program files/microchip/xc32/v4.60/bin/bin/../../lib/gcc/pic32c/8.3.1/../../../../pic32c/lib/thumb/v7e-m+fp/hard\libg-musl.a(__overflow.o)
                              c:/program files/microchip/xc32/v4.60/bin/bin/../../lib/gcc/pic32c/8.3.1/../../../../pic32c/lib/thumb/v7e-m+fp/hard\libg-musl.a(__putc.o) (__overflow)
c:/program files/microchip/xc32/v4.60/bin/bin/../../lib/gcc/pic32c/8.3.1/../../../../pic32c/lib/thumb/v7e-m+fp/hard\libg-musl.a(__fclose.o)
                              c:/program files/microchip/xc32/v4.60/bin/bin/../../lib/gcc/pic32c/8.3.1/../../../../pic32c/lib/thumb/v7e-m+fp/hard\libg-musl.a(__io_buf_needed.o) (__fclose_needed)
c:/program files/microchip/xc32/v4.60/bin/bin/../../lib/gcc/pic32c/8.3.1/../../../../pic32c/lib/thumb/v7e-m+fp/hard\libg-musl.a(__fopen.o)
                              c:/program files/microchip/xc32/v4.60/bin/bin/../../lib/gcc/pic32c/8.3.1/../../../../pic32c/lib/thumb/v7e-m+fp/hard\libg-musl.a(__io_std_needed.o) (__fopen_needed)
c:/program files/microchip/xc32/v4.60/bin/bin/../../lib/gcc/pic32c/8.3.1/../../../../pic32c/lib/thumb/v7e-m+fp/hard\libg-musl.a(__fseeko.o)
                              c:/program files/microchip/xc32/v4.60/bin/bin/../../lib/gcc/pic32c/8.3.1/../../../../pic32c/lib/thumb/v7e-m+fp/hard\libg-musl.a(__io_buf_needed.o) (__fseeko_needed)
c:/program files/microchip/xc32/v4.60/bin/bin/../../lib/gcc/pic32c/8.3.1/../../../../pic32c/lib/thumb/v7e-m+fp/hard\libg-musl.a(__ftello.o)
                              c:/program files/microchip/xc32/v4.60/bin/bin/../../lib/gcc/pic32c/8.3.1/../../../../pic32c/lib/thumb/v7e-m+fp/hard\libg-musl.a(__io_buf_needed.o) (__ftello_adj_needed)
c:/program files/microchip/xc32/v4.60/bin/bin/../../lib/gcc/pic32c/8.3.1/../../../../pic32c/lib/thumb/v7e-m+fp/hard\libg-musl.a(__fwrite.o)
                              c:/program files/microchip/xc32/v4.60/bin/bin/../../lib/gcc/pic32c/8.3.1/../../../../pic32c/lib/thumb/v7e-m+fp/hard\libg-musl.a(__io_std_needed.o) (__fwrite_needed)
c:/program files/microchip/xc32/v4.60/bin/bin/../../lib/gcc/pic32c/8.3.1/thumb/v7e-m+fp/hard\libgcc.a(_aeabi_uldivmod.o)
                              build/default/debug/_ext/1360937237/actuator.o (__aeabi_uldivmod)
c:/program files/microchip/xc32/v4.60/bin/bin/../../lib/gcc/pic32c/8.3.1/thumb/v7e-m+fp/hard\libgcc.a(_udivmoddi4.o)
                              c:/program files/microchip/xc32/v4.60/bin/bin/../../lib/gcc/pic32c/8.3.1/thumb/v7e-m+fp/hard\libgcc.a(_aeabi_uldivmod.o) (__udivmoddi4)
c:/program files/microchip/xc32/v4.60/bin/bin/../../lib/gcc/pic32c/8.3.1/thumb/v7e-m+fp/hard\libgcc.a(_dvmd_tls.o)
                              c:/program files/microchip/xc32/v4.60/bin/bin/../../lib/gcc/pic32c/8.3.1/thumb/v7e-m+fp/hard\libgcc.a(_aeabi_uldivmod.o) (__aeabi_ldiv0)
c:/program files/microchip/xc32/v4.60/bin/bin/../../lib/gcc/pic32c/8.3.1/../../../../pic32c/lib/thumb/v7e-m+fp/hard\libpic32c.a(close.o)
                              c:/program files/microchip/xc32/v4.60/bin/bin/../../lib/gcc/pic32c/8.3.1/../../../../pic32c/lib/thumb/v7e-m+fp/hard\libg-musl.a(__stdio_close.o) (close)
c:/program files/microchip/xc32/v4.60/bin/bin/../../lib/gcc/pic32c/8.3.1/../../../../pic32c/lib/thumb/v7e-m+fp/hard\libpic32c.a(lseek.o)
                              c:/program files/microchip/xc32/v4.60/bin/bin/../../lib/gcc/pic32c/8.3.1/../../../../pic32c/lib/thumb/v7e-m+fp/hard\libg-musl.a(__stdio_close.o) (lseek)
c:/program files/microchip/xc32/v4.60/bin/bin/../../lib/gcc/pic32c/8.3.1/../../../../pic32c/lib/thumb/v7e-m+fp/hard\libc-size-musl.a(strlen.o)
                              c:/program files/microchip/xc32/v4.60/bin/bin/../../lib/gcc/pic32c/8.3.1/../../../../pic32c/lib/thumb/v7e-m+fp/hard\libg-musl.a(__printf_core.o) (strlen)
c:/program files/microchip/xc32/v4.60/bin/bin/../../lib/gcc/pic32c/8.3.1/../../../../pic32c/lib/thumb/v7e-m+fp/hard\liblmalloc-musl.a(lite_malloc.o)
                              c:/program files/microchip/xc32/v4.60/bin/bin/../../lib/gcc/pic32c/8.3.1/../../../../pic32c/lib/thumb/v7e-m+fp/hard\libg-musl.a(setvbuf.o) (malloc)
c:/program files/microchip/xc32/v4.60/bin/bin/../../lib/gcc/pic32c/8.3.1/../../../../pic32c/lib/thumb/v7e-m+fp/hard\liblmalloc-musl.a(lite_free.o)
                              c:/program files/microchip/xc32/v4.60/bin/bin/../../lib/gcc/pic32c/8.3.1/../../../../pic32c/lib/thumb/v7e-m+fp/hard\liblmalloc-musl.a(lite_malloc.o) (__init_search_fl)
c:/program files/microchip/xc32/v4.60/bin/bin/../../lib/gcc/pic32c/8.3.1/../../../../pic32c/lib/thumb/v7e-m+fp/hard\libg-musl.a(expand_heap.o)
                              c:/program files/microchip/xc32/v4.60/bin/bin/../../lib/gcc/pic32c/8.3.1/../../../../pic32c/lib/thumb/v7e-m+fp/hard\liblmalloc-musl.a(lite_malloc.o) (__expand_heap)
c:/program files/microchip/xc32/v4.60/bin/bin/../../lib/gcc/pic32c/8.3.1/../../../../pic32c/lib/thumb/v7e-m+fp/hard\libpic32c.a(sbrk.o)
                              c:/program files/microchip/xc32/v4.60/bin/bin/../../lib/gcc/pic32c/8.3.1/../../../../pic32c/lib/thumb/v7e-m+fp/hard\liblmalloc-musl.a(lite_malloc.o) (_get_heap_left_space)
c:/program files/microchip/xc32/v4.60/bin/bin/../../lib/gcc/pic32c/8.3.1/../../../../pic32c/lib/thumb/v7e-m+fp/hard\libpic32c.a(pic32_data_init_clear.o)
                              (__dinit_clear_needed)
c:/program files/microchip/xc32/v4.60/bin/bin/../../lib/gcc/pic32c/8.3.1/../../../../pic32c/lib/thumb/v7e-m+fp/hard\libpic32c.a(pic32_data_init_copy.o)
                              (__dinit_copy_needed)

Microchip PIC32 Memory-Usage Report

ROM Program-Memory Usage
section                    address  length [bytes]      (dec)  Description
-------                 ----------  -------------------------  -----------
.vectors                         0          0x260         608   
.text                        0x260           0x20          32  App's exec code 
.ARM.exidx                   0x280            0x8           8   
.text.__printf_core          0x288          0x308         776   
.text                        0x590          0x2bc         700  App's exec code 
.dinit                       0x84c          0x280         640   
.text.xTaskCreate            0xacc          0x1ec         492   
.text.Actuator_Task          0xcb8          0x19c         412   
.text.xTaskIncrementTic      0xe54          0x190         400   
.text.CLOCK_Initialize       0xfe4          0x17c         380   
.text.xTaskResumeAll        0x1160          0x170         368   
.text.DMAC_ChannelTrans     0x12d0           0xe8         232   
.text.prvAddCurrentTask     0x13b8           0xbc         188   
.text.NeoPixel_HSVtoRGB     0x1474           0xb8         184   
.text.vTaskSwitchContex     0x152c           0xac         172   
.text.__pop_int             0x15d8           0xac         172   
.text.NeoPixel_SetPixel     0x1684           0x9c         156   
.text.Reset_Handler         0x1720           0x8c         140   
.text.main                  0x17ac           0x8c         140   
.text.__write_buffered      0x1838           0x8a         138   
.text.TRNG_Initialize       0x18c2            0x2           2   
.text.pvPortMalloc          0x18c4           0x88         136   
.text.vTaskStartSchedul     0x194c           0x88         136   
.text.DMAC_channel_inte     0x19d4           0x84         132   
.text.__pad                 0x1a58           0x84         132   
.text.__simple_search_f     0x1adc           0x84         132   
.text.PORT_Initialize       0x1b60           0x7c         124   
.text.__pop_ptr             0x1bdc           0x7c         124   
.text.__cvt_u               0x1c58           0x78         120   
.text.__stdio_write_buf     0x1cd0           0x76         118   
.text.Dummy_App_Func        0x1d46            0x2           2   
.text.NeoPixel_GreenPur     0x1d48           0x64         100   
.text.xPortPendSVHandle     0x1dac           0x60          96   
.text.__stdio_read          0x1e0c           0x60          96   
.text.__simple_malloc       0x1e6c           0x60          96   
.text.TCC0_PWMInitializ     0x1ecc           0x5c          92   
.text.__libc_start_init     0x1f28           0x5c          92   
.text.__stdio_close_rw      0x1f84           0x5c          92   
.text.DMAC_Initialize       0x1fe0           0x58          88   
.text.NVIC_Initialize       0x2038           0x58          88   
.text.__fmt_u               0x2090           0x56          86   
.text.vPortFree             0x20e6            0x2           2   
.text.SYS_Initialize        0x20e8           0x50          80   
.text.SERCOM5_USART_Rea     0x2138           0x50          80   
.text.__overflow            0x2188           0x4e          78   
.text.__dummy_init_tls      0x21d6            0x2           2   
.text.xPortStartSchedul     0x21d8           0x4c          76   
.text.prvCheckTasksWait     0x2224           0x4c          76   
.text.setvbuf               0x2270           0x4c          76   
.text._sbrk                 0x22bc           0x4c          76   
.text.act_reset             0x2308           0x48          72   
.text.atoi                  0x2350           0x46          70   
.text.__dummy               0x2396            0x2           2   
.rodata.Actuator_Task.s     0x2398           0x44          68   
.text.SERCOM5_USART_Wri     0x23dc           0x44          68   
.text                       0x2420           0x40          64  App's exec code 
.text.__putc                0x2460           0x3e          62   
.text.__dummy               0x249e            0x2           2   
.text.__fmt_state           0x24a0           0x3c          60   
.text.__out                 0x24dc           0x3c          60   
.text.__pic32c_data_ini     0x2518           0x38          56   
.text.__putc_unbuffered     0x2550           0x38          56   
.text.vListInsert           0x2588           0x34          52   
.text.vTaskDelay            0x25bc           0x34          52   
.rodata.main.str1.4         0x25f0           0x34          52   
.text.SERCOM5_USART_Ini     0x2624           0x34          52   
.text.SERCOM5_USART_Err     0x2658           0x30          48   
.text                       0x2688           0x30          48  App's exec code 
.text._sbrk_init            0x26b8           0x30          48   
.text.pxPortInitialiseS     0x26e8           0x2c          44   
.text.xPortSysTickHandl     0x2714           0x2c          44   
.text.NeoPixel_Show         0x2740           0x2c          44   
.text.Actuator_InitPort     0x276c           0x2c          44   
.text.interpolateNum        0x2798           0x2a          42   
.text.__pop_float           0x27c2           0x2a          42   
.text.fwrite                0x27ec           0x2a          42   
.text.__readv               0x2816           0x2a          42   
.text.__writev              0x2840           0x2a          42   
.text.__dummy               0x286a            0x2           2   
.text.SERCOM1_SPI_Initi     0x286c           0x28          40   
.text.prvPortStartFirst     0x2894           0x28          40   
.text.vPortSetupTimerIn     0x28bc           0x28          40   
.text.prvResetNextTaskU     0x28e4           0x28          40   
.text.prvIdleTask           0x290c           0x28          40   
.text.act_up                0x2934           0x28          40   
.text.puts                  0x295c           0x28          40   
.text.__towrite_rw          0x2984           0x28          40   
.text.SYSTICK_TimerInit     0x29ac           0x24          36   
.text.TRNG_ReadData         0x29d0           0x24          36   
.text.NeoPixel_Init         0x29f4           0x24          36   
.text.__wrap_printf         0x2a18           0x24          36   
.text.uxListRemove          0x2a3c           0x22          34   
.text.fputs                 0x2a5e           0x22          34   
.text.prvTaskExitError      0x2a80           0x20          32   
.text.vPortSVCHandler       0x2aa0           0x20          32   
.text.vPortEnterCritica     0x2ac0           0x20          32   
.text.Blinky_Task           0x2ae0           0x20          32   
.text._get_heap_left_sp     0x2b00           0x20          32   
.text.read                  0x2b20           0x1e          30   
.text.__dinit_copy          0x2b3e           0x1e          30   
.text.write                 0x2b5c           0x1c          28   
.text.NeoPixel_Task         0x2b78           0x1c          28   
.text.memcpy                0x2b94           0x1c          28   
.text.__vfprintf            0x2bb0           0x1c          28   
.text.__towrite             0x2bcc           0x18          24   
.text.__fwrite              0x2be4           0x18          24   
.text.strlen                0x2bfc           0x18          24   
.text.__init_search_fl      0x2c14           0x18          24   
.text.vListInitialise       0x2c2c           0x16          22   
.rodata                     0x2c42           0x16          22  Read-only const 
.text.__expand_heap         0x2c58           0x16          22   
.text.EVSYS_Initialize      0x2c70           0x14          20   
.text.vPortEnableVFP        0x2c84           0x14          20   
.text.vPortExitCritical     0x2c98           0x14          20   
.text.NeoPixel_DMA_Call     0x2cac           0x14          20   
.rodata                     0x2cc0           0x14          20  Read-only const 
.text.memset                0x2cd4           0x14          20   
.text.__init_stdout         0x2ce8           0x14          20   
.text.vApplicationStack     0x2cfc           0x12          18   
.text.vApplicationMallo     0x2d0e           0x12          18   
.text.__dinit_clear         0x2d20           0x12          18   
.text.DMAC_ChannelCallb     0x2d34           0x10          16   
.text.NVMCTRL_Initializ     0x2d44           0x10          16   
.text.vTaskSuspendAll       0x2d54           0x10          16   
.text.setbuf                0x2d64           0x10          16   
.text.__init_stdio          0x2d74           0x10          16   
.text.tolower               0x2d84            0xe          14   
.text.DMAC_0_InterruptH     0x2d92            0xa          10   
.rodata.str1.1              0x2d9c            0x8           8   
.text.putc                  0x2da4            0x8           8   
.text.__get_stdout          0x2dac            0x8           8   
.text.vListInitialiseIt     0x2db4            0x6           6   
.text.__fwrite_min          0x2dba            0x6           6   
.text.close                 0x2dc0            0x6           6   
.text.Dummy_Handler         0x2dc6            0x4           4   
.text.NonMaskableInt_Ha     0x2dca            0x4           4   
.text.HardFault_Handler     0x2dce            0x4           4   
.text.DebugMonitor_Hand     0x2dd2            0x4           4   
.text.MemoryManagement_     0x2dd6            0x4           4   
.text.BusFault_Handler      0x2dda            0x4           4   
.text.UsageFault_Handle     0x2dde            0x4           4   
.text.__dummy_decompres     0x2de2            0x4           4   
.text.__dummy_fmt3          0x2de6            0x4           4   
.text.__dummy_fmt4          0x2dea            0x4           4   
.text.__dummy_fmts          0x2dee            0x4           4   
.text.__dummy               0x2df2            0x4           4   
.text                       0x2df8            0x4           4  App's exec code 
.text.lseek                 0x2dfc            0x4           4   
      Total ROM used  :      0x2dfa       11770  1.1% of 0x100000
        --------------------------------------------------------------------------
         Total Program Memory used  :      0x2dfa       11770  1.1% of 0x100000
        --------------------------------------------------------------------------


RAM Data-Memory Usage
section                    address  length [bytes]      (dec)  Description
-------                 ----------  -------------------------  -----------
.bss.ucHeap             0x20000000         0xa000       40960   
.bss.neo_buf            0x2000a000          0x542        1346   
.bss                    0x2000a542          0x408        1032  Uninitialized data 
.bss.tx_done            0x2000a94a            0x1           1   
.bss.is_down            0x2000a94b            0x1           1   
.bss.pxReadyTasksLists  0x2000a94c           0x64         100   
.bss                    0x2000a9b0           0x50          80  Uninitialized data 
.bss                    0x2000aa00           0x1c          28  Uninitialized data 
.bss.xDelayedTaskList1  0x2000aa1c           0x14          20   
.bss.xDelayedTaskList2  0x2000aa30           0x14          20   
.bss.xPendingReadyList  0x2000aa44           0x14          20   
.bss.xSuspendedTaskList 0x2000aa58           0x14          20   
.bss.xTasksWaitingTermi 0x2000aa6c           0x14          20   
.bss.descriptor_section 0x2000aa80           0x10          16   
.bss.dmacChannelObj     0x2000aa90           0x10          16   
.bss.write_back_section 0x2000aaa0           0x10          16   
.bss.systick            0x2000aab0            0xc          12   
.bss                    0x2000aabc            0xc          12  Uninitialized data 
.bss                    0x2000aac8            0x8           8  Uninitialized data 
.bss.pucAlignedHeap.613 0x2000aad0            0x4           4   
.bss.xNextFreeByte      0x2000aad4            0x4           4   
.bss.pxCurrentTCB       0x2000aad8            0x4           4   
.bss.pxDelayedTaskList  0x2000aadc            0x4           4   
.bss.pxOverflowDelayedT 0x2000aae0            0x4           4   
.bss.uxCurrentNumberOfT 0x2000aae4            0x4           4   
.bss.uxDeletedTasksWait 0x2000aae8            0x4           4   
.bss.uxSchedulerSuspend 0x2000aaec            0x4           4   
.bss.uxTaskNumber       0x2000aaf0            0x4           4   
.bss.uxTopReadyPriority 0x2000aaf4            0x4           4   
.bss.xIdleTaskHandles   0x2000aaf8            0x4           4   
.bss.xNextTaskUnblockTi 0x2000aafc            0x4           4   
.bss.xNumOfOverflows    0x2000ab00            0x4           4   
.bss.xPendedTicks       0x2000ab04            0x4           4   
.bss.xSchedulerRunning  0x2000ab08            0x4           4   
.bss.xTickCount         0x2000ab0c            0x4           4   
.bss.xYieldPendings     0x2000ab10            0x4           4   
.bss                    0x2000ab14            0x4           4  Uninitialized data 
.bss                    0x2000ab18            0x4           4  Uninitialized data 
.bss                    0x2000ab1c            0x4           4  Uninitialized data 
.bss                    0x2000ab20            0x4           4  Uninitialized data 
.bss.is_up              0x2000ab24            0x1           1   
.data                   0x2000ab28           0x6c         108  Initialized data 
.data                   0x2000ab94           0x60          96  Initialized data 
.data                   0x2000abf4           0x20          32  Initialized data 
.data.uxCriticalNesting 0x2000ac14            0x4           4   
.data.uxTopUsedPriority 0x2000ac18            0x4           4   
.data                   0x2000ac1c            0x4           4  Initialized data 
         Total RAM used  :      0xac1d       44061  16.8% of 0x40000
        --------------------------------------------------------------------------
            Total Data Memory used  :      0xac1d       44061  16.8% of 0x40000
        --------------------------------------------------------------------------


Dynamic Data-Memory Reservation
section                    address  length [bytes]      (dec)  Description
-------                 ----------  -------------------------  -----------
heap                    0x2000ac28          0x200         512  Reserved for heap 
stack                   0x2000ae40        0x351b8      217528  Reserved for stack 

        --------------------------------------------------------------------------

Microchip PIC32 Memory-Usage Report By Module

        text        data         bss         dec         hex    basename                     filename
--------------------------------------------------------------------------------
         138           0       40968       41106        a092    heap_1.o                 build/default/debug/_ext/1665200909/heap_1.o
        1980           4         260        2244         8c4    FreeRTOS_tasks.o         build/default/debug/_ext/404212886/FreeRTOS_tasks.o
         540           0        1347        1887         75f    neopixel.o               build/default/debug/_ext/1360937237/neopixel.o
           4         108        1032        1144         478    stdin.o                  libg-musl.a
        1010           0           0        1010         3f2    __printf_core.o          libg-musl.a
         708           0           0         708         2c4    _udivmoddi4.o            libgcc.a
         678           0           2         680         2a8    actuator.o               build/default/debug/_ext/1360937237/actuator.o
         640           0           0         640         280    data_init                data_init
         612           0           0         612         264    interrupts.o             build/default/debug/_ext/1171490990/interrupts.o
         478           0          48         526         20e    plib_dmac.o              build/default/debug/_ext/1865161661/plib_dmac.o
         476           4           0         480         1e0    port.o                   build/default/debug/_ext/246609638/port.o
         380           0           0         380         17c    plib_clock.o             build/default/debug/_ext/1984496892/plib_clock.o
         256           0           0         256         100    __stdio_write.o          libg-musl.a
         252           0           0         252          fc    main.o                   build/default/debug/_ext/1360937237/main.o
         248           0           0         248          f8    plib_sercom5_usart.o     build/default/debug/_ext/504274921/plib_sercom5_usart.o
         172           0           0         172          ac    __pop_int.o              libg-musl.a
         156           0          12         168          a8    sbrk.o                   libpic32c.a
         156           0           4         160          a0    lite_free.o              liblmalloc-musl.a
         142           0           0         142          8e    startup_xc32.o           build/default/debug/_ext/1171490990/startup_xc32.o
         124           0           0         124          7c    plib_port.o              build/default/debug/_ext/1865521619/plib_port.o
         124           0           0         124          7c    __pop_ptr.o              libg-musl.a
         120           0           0         120          78    __cvt_u.o                libg-musl.a
         114           0           0         114          72    list.o                   build/default/debug/_ext/404212886/list.o
           8          96           0         104          68    __stdout.o               libg-musl.a
          96           4           0         100          64    lite_malloc.o            liblmalloc-musl.a
          72           0          28         100          64    crtbegin.o               c:/program files/microchip/xc32/v4.60/bin/bin/../../lib/gcc/pic32c/8.3.1/thumb/v7e-m+fp/hard/crtbegin.o
          96           0           0          96          60    __stdio_read.o           libg-musl.a
          94           0           0          94          5e    __libc_start_main.o      libg-musl.a
          92           0           0          92          5c    __stdio_close.o          libg-musl.a
          92           0           0          92          5c    initialization.o         build/default/debug/_ext/1171490990/initialization.o
          92           0           0          92          5c    plib_tcc0.o              build/default/debug/_ext/60181570/plib_tcc0.o
          88           0           0          88          58    plib_nvic.o              build/default/debug/_ext/1865468468/plib_nvic.o
          82           0           4          86          56    data_init.o              libpic32c.a
          86           0           0          86          56    __fmt_u.o                libg-musl.a
           0           0          80          80          50    libc.o                   libg-musl.a
          78           0           0          78          4e    __overflow.o             libg-musl.a
          76           0           0          76          4c    setvbuf.o                libg-musl.a
          70           0           0          70          46    atoi.o                   libg-musl.a
          66           0           0          66          42    __out.o                  libg-musl.a
          64           0           0          64          40    putc.o                   libg-musl.a
          62           0           0          62          3e    __putc.o                 libg-musl.a
          20          32           8          60          3c    stdout.o                 libg-musl.a
          58           0           0          58          3a    xc32_monitor.o           build/default/debug/_ext/163028504/xc32_monitor.o
          36           0          12          48          30    plib_systick.o           build/default/debug/_ext/1827571544/plib_systick.o
          48           0           0          48          30    _aeabi_uldivmod.o        libgcc.a
          42           0           0          42          2a    fwrite.o                 libg-musl.a
          42           0           0          42          2a    __pop_float.o            libg-musl.a
          42           0           0          42          2a    writev.o                 libg-musl.a
          42           0           0          42          2a    readv.o                  libg-musl.a
          40           0           0          40          28    plib_sercom1_spi_master.obuild/default/debug/_ext/17022449/plib_sercom1_spi_master.o
          40           0           0          40          28    __towrite_rw.o           libg-musl.a
          40           0           0          40          28    puts.o                   libg-musl.a
          38           0           0          38          26    plib_trng.o              build/default/debug/_ext/1865643529/plib_trng.o
          36           0           0          36          24    __sio_printf_nu.o        libg-musl.a
          36           0           0          36          24    freertos_hooks.o         build/default/debug/_ext/1171490990/freertos_hooks.o
          34           0           0          34          22    fputs.o                  libg-musl.a
          30           0           0          30          1e    pic32_data_init_copy.o   libpic32c.a
          28           0           0          28          1c    memcpy.o                 libc-size-musl.a
          28           0           0          28          1c    __int_vfprintf.o         libg-musl.a
          24           0           0          24          18    __towrite.o              libg-musl.a
          24           0           0          24          18    __fwrite.o               libg-musl.a
          24           0           0          24          18    exceptions.o             build/default/debug/_ext/1171490990/exceptions.o
          24           0           0          24          18    strlen.o                 libc-size-musl.a
          22           0           0          22          16    expand_heap.o            libg-musl.a
          20           0           0          20          14    plib_evsys.o             build/default/debug/_ext/1986646378/plib_evsys.o
          20           0           0          20          14    memset.o                 libc-size-musl.a
          18           0           0          18          12    __init_stdio.o           libg-musl.a
          18           0           0          18          12    pic32_data_init_clear.o  libpic32c.a
          16           0           0          16          10    setbuf.o                 libg-musl.a
          16           0           0          16          10    plib_nvmctrl.o           build/default/debug/_ext/1593096446/plib_nvmctrl.o
          16           0           0          16          10    crtn.o                   c:/program files/microchip/xc32/v4.60/bin/bin/../../lib/gcc/pic32c/8.3.1/thumb/v7e-m+fp/hard/crtn.o
          14           0           0          14           e    tolower.o                libg-musl.a
           8           0           0           8           8    crti.o                   c:/program files/microchip/xc32/v4.60/bin/bin/../../lib/gcc/pic32c/8.3.1/thumb/v7e-m+fp/hard/crti.o
           6           0           0           6           6    close.o                  libpic32c.a
           0           0           4           4           4    __environ.o              libg-musl.a
           4           0           0           4           4    lseek.o                  libpic32c.a
           4           0           0           4           4    _dvmd_tls.o              libgcc.a
           0           0           4           4           4    __errno_location.o       libg-musl.a
           2           0           0           2           2    __stderr.o               libg-musl.a
--------------------------------------------------------------------------------
       11782         248       43813       55843        da23    dist/default/debug/CR-Proj.debug.elf


Discarded input sections

 .text          0x0000000000000000        0x0 c:/program files/microchip/xc32/v4.60/bin/bin/../../lib/gcc/pic32c/8.3.1/thumb/v7e-m+fp/hard/crti.o
 .data          0x0000000000000000        0x0 c:/program files/microchip/xc32/v4.60/bin/bin/../../lib/gcc/pic32c/8.3.1/thumb/v7e-m+fp/hard/crti.o
 .bss           0x0000000000000000        0x0 c:/program files/microchip/xc32/v4.60/bin/bin/../../lib/gcc/pic32c/8.3.1/thumb/v7e-m+fp/hard/crti.o
 .xc_stack_usage.hdr
                0x0000000000000000        0xe c:/program files/microchip/xc32/v4.60/bin/bin/../../lib/gcc/pic32c/8.3.1/thumb/v7e-m+fp/hard/crti.o
 .xc_stack_usage
                0x0000000000000000       0x26 c:/program files/microchip/xc32/v4.60/bin/bin/../../lib/gcc/pic32c/8.3.1/thumb/v7e-m+fp/hard/crti.o
 .data          0x0000000000000000        0x4 c:/program files/microchip/xc32/v4.60/bin/bin/../../lib/gcc/pic32c/8.3.1/thumb/v7e-m+fp/hard/crtbegin.o
 .xc_stack_usage
                0x0000000000000000       0x3c c:/program files/microchip/xc32/v4.60/bin/bin/../../lib/gcc/pic32c/8.3.1/thumb/v7e-m+fp/hard/crtbegin.o
 .xc_stack_usage.hdr
                0x0000000000000000        0xe c:/program files/microchip/xc32/v4.60/bin/bin/../../lib/gcc/pic32c/8.3.1/thumb/v7e-m+fp/hard/crtbegin.o
 .text          0x0000000000000000        0x0 build/default/debug/_ext/1984496892/plib_clock.o
 .data          0x0000000000000000        0x0 build/default/debug/_ext/1984496892/plib_clock.o
 .bss           0x0000000000000000        0x0 build/default/debug/_ext/1984496892/plib_clock.o
 .text          0x0000000000000000        0x0 build/default/debug/_ext/1865131932/plib_cmcc.o
 .data          0x0000000000000000        0x0 build/default/debug/_ext/1865131932/plib_cmcc.o
 .bss           0x0000000000000000        0x0 build/default/debug/_ext/1865131932/plib_cmcc.o
 .text.CMCC_Disable
                0x0000000000000000       0x18 build/default/debug/_ext/1865131932/plib_cmcc.o
 .text.CMCC_EnableICache
                0x0000000000000000       0x28 build/default/debug/_ext/1865131932/plib_cmcc.o
 .text.CMCC_DisableICache
                0x0000000000000000       0x28 build/default/debug/_ext/1865131932/plib_cmcc.o
 .text.CMCC_EnableDCache
                0x0000000000000000       0x28 build/default/debug/_ext/1865131932/plib_cmcc.o
 .text.CMCC_DisableDCache
                0x0000000000000000       0x28 build/default/debug/_ext/1865131932/plib_cmcc.o
 .text.CMCC_InvalidateAll
                0x0000000000000000       0x20 build/default/debug/_ext/1865131932/plib_cmcc.o
 .debug_info    0x0000000000000000      0x213 build/default/debug/_ext/1865131932/plib_cmcc.o
 .debug_abbrev  0x0000000000000000       0xa4 build/default/debug/_ext/1865131932/plib_cmcc.o
 .debug_aranges
                0x0000000000000000       0x48 build/default/debug/_ext/1865131932/plib_cmcc.o
 .debug_ranges  0x0000000000000000       0x38 build/default/debug/_ext/1865131932/plib_cmcc.o
 .debug_line    0x0000000000000000      0x207 build/default/debug/_ext/1865131932/plib_cmcc.o
 .debug_str     0x0000000000000000      0x3a4 build/default/debug/_ext/1865131932/plib_cmcc.o
 .comment       0x0000000000000000       0x2c build/default/debug/_ext/1865131932/plib_cmcc.o
 .debug_frame   0x0000000000000000       0x70 build/default/debug/_ext/1865131932/plib_cmcc.o
 .ARM.attributes
                0x0000000000000000       0x34 build/default/debug/_ext/1865131932/plib_cmcc.o
 .text          0x0000000000000000        0x0 build/default/debug/_ext/1865161661/plib_dmac.o
 .data          0x0000000000000000        0x0 build/default/debug/_ext/1865161661/plib_dmac.o
 .bss           0x0000000000000000        0x0 build/default/debug/_ext/1865161661/plib_dmac.o
 .text.DMAC_ChannelIsBusy
                0x0000000000000000       0x24 build/default/debug/_ext/1865161661/plib_dmac.o
 .text.DMAC_ChannelTransferStatusGet
                0x0000000000000000       0x1e build/default/debug/_ext/1865161661/plib_dmac.o
 .text.DMAC_ChannelDisable
                0x0000000000000000       0x2c build/default/debug/_ext/1865161661/plib_dmac.o
 .text.DMAC_ChannelGetTransferredCount
                0x0000000000000000       0x1c build/default/debug/_ext/1865161661/plib_dmac.o
 .text.DMAC_ChannelSettingsGet
                0x0000000000000000        0xc build/default/debug/_ext/1865161661/plib_dmac.o
 .text.DMAC_ChannelSettingsSet
                0x0000000000000000       0x28 build/default/debug/_ext/1865161661/plib_dmac.o
 .text.DMAC_ChannelSuspend
                0x0000000000000000       0x1c build/default/debug/_ext/1865161661/plib_dmac.o
 .text.DMAC_ChannelResume
                0x0000000000000000       0x1c build/default/debug/_ext/1865161661/plib_dmac.o
 .text.DMAC_CRCDisable
                0x0000000000000000        0xc build/default/debug/_ext/1865161661/plib_dmac.o
 .text.DMAC_ChannelCRCSetup
                0x0000000000000000       0x40 build/default/debug/_ext/1865161661/plib_dmac.o
 .text.DMAC_CRCRead
                0x0000000000000000        0xc build/default/debug/_ext/1865161661/plib_dmac.o
 .text.DMAC_CRCCalculate
                0x0000000000000000       0x98 build/default/debug/_ext/1865161661/plib_dmac.o
 .text          0x0000000000000000        0x0 build/default/debug/_ext/1986646378/plib_evsys.o
 .data          0x0000000000000000        0x0 build/default/debug/_ext/1986646378/plib_evsys.o
 .bss           0x0000000000000000        0x0 build/default/debug/_ext/1986646378/plib_evsys.o
 .text.EVSYS_GeneratorEnable
                0x0000000000000000       0x1a build/default/debug/_ext/1986646378/plib_evsys.o
 .text.EVSYS_GeneratorDisable
                0x0000000000000000       0x14 build/default/debug/_ext/1986646378/plib_evsys.o
 .text.EVSYS_UserEnable
                0x0000000000000000       0x14 build/default/debug/_ext/1986646378/plib_evsys.o
 .text.EVSYS_UserDisable
                0x0000000000000000       0x10 build/default/debug/_ext/1986646378/plib_evsys.o
 .text          0x0000000000000000        0x0 build/default/debug/_ext/1865468468/plib_nvic.o
 .data          0x0000000000000000        0x0 build/default/debug/_ext/1865468468/plib_nvic.o
 .bss           0x0000000000000000        0x0 build/default/debug/_ext/1865468468/plib_nvic.o
 .text.NVIC_INT_Enable
                0x0000000000000000        0x8 build/default/debug/_ext/1865468468/plib_nvic.o
 .text.NVIC_INT_Disable
                0x0000000000000000       0x12 build/default/debug/_ext/1865468468/plib_nvic.o
 .text.NVIC_INT_Restore
                0x0000000000000000       0x12 build/default/debug/_ext/1865468468/plib_nvic.o
 .text.NVIC_INT_SourceDisable
                0x0000000000000000       0x44 build/default/debug/_ext/1865468468/plib_nvic.o
 .text.NVIC_INT_SourceRestore
                0x0000000000000000       0x20 build/default/debug/_ext/1865468468/plib_nvic.o
 .text          0x0000000000000000        0x0 build/default/debug/_ext/1593096446/plib_nvmctrl.o
 .data          0x0000000000000000        0x0 build/default/debug/_ext/1593096446/plib_nvmctrl.o
 .bss           0x0000000000000000        0x0 build/default/debug/_ext/1593096446/plib_nvmctrl.o
 .text.NVMCTRL_Read
                0x0000000000000000       0x10 build/default/debug/_ext/1593096446/plib_nvmctrl.o
 .text.NVMCTRL_SetWriteMode
                0x0000000000000000       0x14 build/default/debug/_ext/1593096446/plib_nvmctrl.o
 .text.NVMCTRL_QuadWordWrite
                0x0000000000000000       0x4c build/default/debug/_ext/1593096446/plib_nvmctrl.o
 .text.NVMCTRL_DoubleWordWrite
                0x0000000000000000       0x40 build/default/debug/_ext/1593096446/plib_nvmctrl.o
 .text.NVMCTRL_PageBufferWrite
                0x0000000000000000       0x2c build/default/debug/_ext/1593096446/plib_nvmctrl.o
 .text.NVMCTRL_PageBufferCommit
                0x0000000000000000       0x28 build/default/debug/_ext/1593096446/plib_nvmctrl.o
 .text.NVMCTRL_PageWrite
                0x0000000000000000       0x40 build/default/debug/_ext/1593096446/plib_nvmctrl.o
 .text.NVMCTRL_BlockErase
                0x0000000000000000       0x1c build/default/debug/_ext/1593096446/plib_nvmctrl.o
 .text.NVMCTRL_USER_ROW_RowErase
                0x0000000000000000       0x30 build/default/debug/_ext/1593096446/plib_nvmctrl.o
 .text.NVMCTRL_ErrorGet
                0x0000000000000000       0x20 build/default/debug/_ext/1593096446/plib_nvmctrl.o
 .text.NVMCTRL_StatusGet
                0x0000000000000000        0xc build/default/debug/_ext/1593096446/plib_nvmctrl.o
 .text.NVMCTRL_IsBusy
                0x0000000000000000       0x14 build/default/debug/_ext/1593096446/plib_nvmctrl.o
 .text.NVMCTRL_USER_ROW_PageWrite
                0x0000000000000000       0x6c build/default/debug/_ext/1593096446/plib_nvmctrl.o
 .text.NVMCTRL_RegionLock
                0x0000000000000000       0x10 build/default/debug/_ext/1593096446/plib_nvmctrl.o
 .text.NVMCTRL_RegionUnlock
                0x0000000000000000       0x10 build/default/debug/_ext/1593096446/plib_nvmctrl.o
 .text.NVMCTRL_RegionLockStatusGet
                0x0000000000000000        0xc build/default/debug/_ext/1593096446/plib_nvmctrl.o
 .text.NVMCTRL_SecurityBitSet
                0x0000000000000000       0x10 build/default/debug/_ext/1593096446/plib_nvmctrl.o
 .text.NVMCTRL_SmartEEPROM_IsBusy
                0x0000000000000000       0x10 build/default/debug/_ext/1593096446/plib_nvmctrl.o
 .text.NVMCTRL_SmartEEPROMStatusGet
                0x0000000000000000        0xc build/default/debug/_ext/1593096446/plib_nvmctrl.o
 .text.NVMCTRL_SmartEEPROM_IsActiveSectorFull
                0x0000000000000000       0x10 build/default/debug/_ext/1593096446/plib_nvmctrl.o
 .text.NVMCTRL_BankSwap
                0x0000000000000000       0x10 build/default/debug/_ext/1593096446/plib_nvmctrl.o
 .text.NVMCTRL_SmartEEPROMSectorReallocate
                0x0000000000000000       0x10 build/default/debug/_ext/1593096446/plib_nvmctrl.o
 .text.NVMCTRL_SmartEEPROMFlushPageBuffer
                0x0000000000000000       0x18 build/default/debug/_ext/1593096446/plib_nvmctrl.o
 .bss.nvm_error
                0x0000000000000000        0x2 build/default/debug/_ext/1593096446/plib_nvmctrl.o
 .text          0x0000000000000000        0x0 build/default/debug/_ext/1865521619/plib_port.o
 .data          0x0000000000000000        0x0 build/default/debug/_ext/1865521619/plib_port.o
 .bss           0x0000000000000000        0x0 build/default/debug/_ext/1865521619/plib_port.o
 .text.PORT_GroupRead
                0x0000000000000000        0x4 build/default/debug/_ext/1865521619/plib_port.o
 .text.PORT_GroupWrite
                0x0000000000000000        0xc build/default/debug/_ext/1865521619/plib_port.o
 .text.PORT_GroupLatchRead
                0x0000000000000000        0x4 build/default/debug/_ext/1865521619/plib_port.o
 .text.PORT_GroupSet
                0x0000000000000000        0x4 build/default/debug/_ext/1865521619/plib_port.o
 .text.PORT_GroupClear
                0x0000000000000000        0x4 build/default/debug/_ext/1865521619/plib_port.o
 .text.PORT_GroupToggle
                0x0000000000000000        0x4 build/default/debug/_ext/1865521619/plib_port.o
 .text.PORT_GroupInputEnable
                0x0000000000000000       0x30 build/default/debug/_ext/1865521619/plib_port.o
 .text.PORT_GroupOutputEnable
                0x0000000000000000        0x4 build/default/debug/_ext/1865521619/plib_port.o
 .text.PORT_PinPeripheralFunctionConfig
                0x0000000000000000       0x4a build/default/debug/_ext/1865521619/plib_port.o
 .text.PORT_PinGPIOConfig
                0x0000000000000000       0x20 build/default/debug/_ext/1865521619/plib_port.o
 .text          0x0000000000000000        0x0 build/default/debug/_ext/17022449/plib_sercom1_spi_master.o
 .data          0x0000000000000000        0x0 build/default/debug/_ext/17022449/plib_sercom1_spi_master.o
 .bss           0x0000000000000000        0x0 build/default/debug/_ext/17022449/plib_sercom1_spi_master.o
 .text.SERCOM1_SPI_TransferSetup
                0x0000000000000000       0x9c build/default/debug/_ext/17022449/plib_sercom1_spi_master.o
 .text.SERCOM1_SPI_IsTransmitterBusy
                0x0000000000000000       0x14 build/default/debug/_ext/17022449/plib_sercom1_spi_master.o
 .text.SERCOM1_SPI_WriteRead
                0x0000000000000000      0x15c build/default/debug/_ext/17022449/plib_sercom1_spi_master.o
 .text.SERCOM1_SPI_Write
                0x0000000000000000        0xc build/default/debug/_ext/17022449/plib_sercom1_spi_master.o
 .text.SERCOM1_SPI_Read
                0x0000000000000000       0x10 build/default/debug/_ext/17022449/plib_sercom1_spi_master.o
 .text          0x0000000000000000        0x0 build/default/debug/_ext/1827571544/plib_systick.o
 .data          0x0000000000000000        0x0 build/default/debug/_ext/1827571544/plib_systick.o
 .bss           0x0000000000000000        0x0 build/default/debug/_ext/1827571544/plib_systick.o
 .text.SYSTICK_TimerRestart
                0x0000000000000000       0x1c build/default/debug/_ext/1827571544/plib_systick.o
 .text.SYSTICK_TimerStart
                0x0000000000000000       0x14 build/default/debug/_ext/1827571544/plib_systick.o
 .text.SYSTICK_TimerStop
                0x0000000000000000       0x10 build/default/debug/_ext/1827571544/plib_systick.o
 .text.SYSTICK_TimerPeriodSet
                0x0000000000000000        0xc build/default/debug/_ext/1827571544/plib_systick.o
 .text.SYSTICK_TimerPeriodGet
                0x0000000000000000        0xc build/default/debug/_ext/1827571544/plib_systick.o
 .text.SYSTICK_TimerCounterGet
                0x0000000000000000        0xc build/default/debug/_ext/1827571544/plib_systick.o
 .text.SYSTICK_TimerFrequencyGet
                0x0000000000000000        0x8 build/default/debug/_ext/1827571544/plib_systick.o
 .text.SYSTICK_DelayMs
                0x0000000000000000       0x40 build/default/debug/_ext/1827571544/plib_systick.o
 .text.SYSTICK_DelayUs
                0x0000000000000000       0x40 build/default/debug/_ext/1827571544/plib_systick.o
 .text.SYSTICK_GetTickCounter
                0x0000000000000000        0xc build/default/debug/_ext/1827571544/plib_systick.o
 .text.SYSTICK_StartTimeOut
                0x0000000000000000       0x24 build/default/debug/_ext/1827571544/plib_systick.o
 .text.SYSTICK_ResetTimeOut
                0x0000000000000000        0xc build/default/debug/_ext/1827571544/plib_systick.o
 .text.SYSTICK_IsTimeoutReached
                0x0000000000000000       0x18 build/default/debug/_ext/1827571544/plib_systick.o
 .text.SYSTICK_TimerCallbackSet
                0x0000000000000000        0xc build/default/debug/_ext/1827571544/plib_systick.o
 .text.SysTick_Handler
                0x0000000000000000       0x24 build/default/debug/_ext/1827571544/plib_systick.o
 .text          0x0000000000000000        0x0 build/default/debug/_ext/60181570/plib_tcc0.o
 .data          0x0000000000000000        0x0 build/default/debug/_ext/60181570/plib_tcc0.o
 .bss           0x0000000000000000        0x0 build/default/debug/_ext/60181570/plib_tcc0.o
 .text.TCC0_PWMStart
                0x0000000000000000       0x18 build/default/debug/_ext/60181570/plib_tcc0.o
 .text.TCC0_PWMStop
                0x0000000000000000       0x18 build/default/debug/_ext/60181570/plib_tcc0.o
 .text.TCC0_PWM24bitPeriodSet
                0x0000000000000000       0x20 build/default/debug/_ext/60181570/plib_tcc0.o
 .text.TCC0_PWM24bitPeriodGet
                0x0000000000000000       0x18 build/default/debug/_ext/60181570/plib_tcc0.o
 .text.TCC0_PWMDeadTimeSet
                0x0000000000000000       0x1c build/default/debug/_ext/60181570/plib_tcc0.o
 .text.TCC0_PWMPatternSet
                0x0000000000000000       0x20 build/default/debug/_ext/60181570/plib_tcc0.o
 .text.TCC0_PWM24bitCounterGet
                0x0000000000000000       0x28 build/default/debug/_ext/60181570/plib_tcc0.o
 .text.TCC0_PWM24bitCounterSet
                0x0000000000000000       0x18 build/default/debug/_ext/60181570/plib_tcc0.o
 .text.TCC0_PWMForceUpdate
                0x0000000000000000       0x18 build/default/debug/_ext/60181570/plib_tcc0.o
 .text.TCC0_PWMPeriodInterruptEnable
                0x0000000000000000        0xc build/default/debug/_ext/60181570/plib_tcc0.o
 .text.TCC0_PWMPeriodInterruptDisable
                0x0000000000000000        0xc build/default/debug/_ext/60181570/plib_tcc0.o
 .text.TCC0_PWMInterruptStatusGet
                0x0000000000000000       0x10 build/default/debug/_ext/60181570/plib_tcc0.o
 .text          0x0000000000000000        0x0 build/default/debug/_ext/1865643529/plib_trng.o
 .data          0x0000000000000000        0x0 build/default/debug/_ext/1865643529/plib_trng.o
 .bss           0x0000000000000000        0x0 build/default/debug/_ext/1865643529/plib_trng.o
 .text          0x0000000000000000        0x0 build/default/debug/_ext/163028504/xc32_monitor.o
 .data          0x0000000000000000        0x0 build/default/debug/_ext/163028504/xc32_monitor.o
 .bss           0x0000000000000000        0x0 build/default/debug/_ext/163028504/xc32_monitor.o
 .text          0x0000000000000000        0x0 build/default/debug/_ext/1171490990/initialization.o
 .data          0x0000000000000000        0x0 build/default/debug/_ext/1171490990/initialization.o
 .bss           0x0000000000000000        0x0 build/default/debug/_ext/1171490990/initialization.o
 .text          0x0000000000000000        0x0 build/default/debug/_ext/1171490990/interrupts.o
 .data          0x0000000000000000        0x0 build/default/debug/_ext/1171490990/interrupts.o
 .bss           0x0000000000000000        0x0 build/default/debug/_ext/1171490990/interrupts.o
 .text          0x0000000000000000        0x0 build/default/debug/_ext/1171490990/exceptions.o
 .data          0x0000000000000000        0x0 build/default/debug/_ext/1171490990/exceptions.o
 .bss           0x0000000000000000        0x0 build/default/debug/_ext/1171490990/exceptions.o
 .text          0x0000000000000000        0x0 build/default/debug/_ext/1171490990/startup_xc32.o
 .data          0x0000000000000000        0x0 build/default/debug/_ext/1171490990/startup_xc32.o
 .bss           0x0000000000000000        0x0 build/default/debug/_ext/1171490990/startup_xc32.o
 .text          0x0000000000000000        0x0 build/default/debug/_ext/1171490990/libc_syscalls.o
 .data          0x0000000000000000        0x0 build/default/debug/_ext/1171490990/libc_syscalls.o
 .bss           0x0000000000000000        0x0 build/default/debug/_ext/1171490990/libc_syscalls.o
 .text._exit    0x0000000000000000        0x4 build/default/debug/_ext/1171490990/libc_syscalls.o
 .debug_info    0x0000000000000000       0xa4 build/default/debug/_ext/1171490990/libc_syscalls.o
 .debug_abbrev  0x0000000000000000       0x5a build/default/debug/_ext/1171490990/libc_syscalls.o
 .debug_aranges
                0x0000000000000000       0x20 build/default/debug/_ext/1171490990/libc_syscalls.o
 .debug_ranges  0x0000000000000000       0x10 build/default/debug/_ext/1171490990/libc_syscalls.o
 .debug_line    0x0000000000000000       0x5c build/default/debug/_ext/1171490990/libc_syscalls.o
 .debug_str     0x0000000000000000      0x29f build/default/debug/_ext/1171490990/libc_syscalls.o
 .comment       0x0000000000000000       0x2c build/default/debug/_ext/1171490990/libc_syscalls.o
 .debug_frame   0x0000000000000000       0x20 build/default/debug/_ext/1171490990/libc_syscalls.o
 .ARM.attributes
                0x0000000000000000       0x34 build/default/debug/_ext/1171490990/libc_syscalls.o
 .text          0x0000000000000000        0x0 build/default/debug/_ext/1171490990/freertos_hooks.o
 .data          0x0000000000000000        0x0 build/default/debug/_ext/1171490990/freertos_hooks.o
 .bss           0x0000000000000000        0x0 build/default/debug/_ext/1171490990/freertos_hooks.o
 .text.vApplicationIdleHook
                0x0000000000000000        0x2 build/default/debug/_ext/1171490990/freertos_hooks.o
 .text.vApplicationTickHook
                0x0000000000000000        0x2 build/default/debug/_ext/1171490990/freertos_hooks.o
 .text.vAssertCalled
                0x0000000000000000       0x1c build/default/debug/_ext/1171490990/freertos_hooks.o
 .text          0x0000000000000000        0x0 build/default/debug/_ext/246609638/port.o
 .data          0x0000000000000000        0x0 build/default/debug/_ext/246609638/port.o
 .bss           0x0000000000000000        0x0 build/default/debug/_ext/246609638/port.o
 .text.vPortEndScheduler
                0x0000000000000000        0x2 build/default/debug/_ext/246609638/port.o
 .text          0x0000000000000000        0x0 build/default/debug/_ext/1665200909/heap_1.o
 .data          0x0000000000000000        0x0 build/default/debug/_ext/1665200909/heap_1.o
 .bss           0x0000000000000000        0x0 build/default/debug/_ext/1665200909/heap_1.o
 .text.vPortInitialiseBlocks
                0x0000000000000000        0xc build/default/debug/_ext/1665200909/heap_1.o
 .text.xPortGetFreeHeapSize
                0x0000000000000000       0x10 build/default/debug/_ext/1665200909/heap_1.o
 .text.vPortHeapResetState
                0x0000000000000000        0xc build/default/debug/_ext/1665200909/heap_1.o
 .text          0x0000000000000000        0x0 build/default/debug/_ext/404212886/croutine.o
 .data          0x0000000000000000        0x0 build/default/debug/_ext/404212886/croutine.o
 .bss           0x0000000000000000        0x0 build/default/debug/_ext/404212886/croutine.o
 .debug_info    0x0000000000000000       0x79 build/default/debug/_ext/404212886/croutine.o
 .debug_abbrev  0x0000000000000000       0x26 build/default/debug/_ext/404212886/croutine.o
 .debug_aranges
                0x0000000000000000       0x18 build/default/debug/_ext/404212886/croutine.o
 .debug_line    0x0000000000000000       0x1d build/default/debug/_ext/404212886/croutine.o
 .debug_str     0x0000000000000000      0x2ab build/default/debug/_ext/404212886/croutine.o
 .comment       0x0000000000000000       0x2c build/default/debug/_ext/404212886/croutine.o
 .ARM.attributes
                0x0000000000000000       0x39 build/default/debug/_ext/404212886/croutine.o
 .text          0x0000000000000000        0x0 build/default/debug/_ext/404212886/list.o
 .data          0x0000000000000000        0x0 build/default/debug/_ext/404212886/list.o
 .bss           0x0000000000000000        0x0 build/default/debug/_ext/404212886/list.o
 .text.vListInsertEnd
                0x0000000000000000       0x16 build/default/debug/_ext/404212886/list.o
 .text          0x0000000000000000        0x0 build/default/debug/_ext/404212886/queue.o
 .data          0x0000000000000000        0x0 build/default/debug/_ext/404212886/queue.o
 .bss           0x0000000000000000        0x0 build/default/debug/_ext/404212886/queue.o
 .text.prvIsQueueEmpty
                0x0000000000000000       0x16 build/default/debug/_ext/404212886/queue.o
 .text.prvCopyDataToQueue
                0x0000000000000000       0x76 build/default/debug/_ext/404212886/queue.o
 .text.prvCopyDataFromQueue
                0x0000000000000000       0x24 build/default/debug/_ext/404212886/queue.o
 .text.prvUnlockQueue
                0x0000000000000000       0x7e build/default/debug/_ext/404212886/queue.o
 .text.xQueueGenericReset
                0x0000000000000000       0x90 build/default/debug/_ext/404212886/queue.o
 .text.xQueueGenericCreate
                0x0000000000000000       0x4a build/default/debug/_ext/404212886/queue.o
 .text.xQueueCreateCountingSemaphore
                0x0000000000000000       0x26 build/default/debug/_ext/404212886/queue.o
 .text.xQueueGenericSend
                0x0000000000000000      0x120 build/default/debug/_ext/404212886/queue.o
 .text.xQueueCreateMutex
                0x0000000000000000       0x24 build/default/debug/_ext/404212886/queue.o
 .text.xQueueGenericSendFromISR
                0x0000000000000000       0x7c build/default/debug/_ext/404212886/queue.o
 .text.xQueueGiveFromISR
                0x0000000000000000       0x72 build/default/debug/_ext/404212886/queue.o
 .text.xQueueReceive
                0x0000000000000000      0x110 build/default/debug/_ext/404212886/queue.o
 .text.xQueueSemaphoreTake
                0x0000000000000000      0x154 build/default/debug/_ext/404212886/queue.o
 .text.xQueuePeek
                0x0000000000000000      0x10c build/default/debug/_ext/404212886/queue.o
 .text.xQueueReceiveFromISR
                0x0000000000000000       0x7e build/default/debug/_ext/404212886/queue.o
 .text.xQueuePeekFromISR
                0x0000000000000000       0x30 build/default/debug/_ext/404212886/queue.o
 .text.uxQueueMessagesWaiting
                0x0000000000000000       0x12 build/default/debug/_ext/404212886/queue.o
 .text.uxQueueSpacesAvailable
                0x0000000000000000       0x16 build/default/debug/_ext/404212886/queue.o
 .text.uxQueueMessagesWaitingFromISR
                0x0000000000000000        0x4 build/default/debug/_ext/404212886/queue.o
 .text.vQueueDelete
                0x0000000000000000        0x8 build/default/debug/_ext/404212886/queue.o
 .text.uxQueueGetQueueItemSize
                0x0000000000000000        0x4 build/default/debug/_ext/404212886/queue.o
 .text.uxQueueGetQueueLength
                0x0000000000000000        0x4 build/default/debug/_ext/404212886/queue.o
 .text.xQueueIsQueueEmptyFromISR
                0x0000000000000000        0xa build/default/debug/_ext/404212886/queue.o
 .text.xQueueIsQueueFullFromISR
                0x0000000000000000        0xe build/default/debug/_ext/404212886/queue.o
 .debug_info    0x0000000000000000     0x1bea build/default/debug/_ext/404212886/queue.o
 .debug_abbrev  0x0000000000000000      0x31b build/default/debug/_ext/404212886/queue.o
 .debug_loc     0x0000000000000000     0x1968 build/default/debug/_ext/404212886/queue.o
 .debug_aranges
                0x0000000000000000       0xd8 build/default/debug/_ext/404212886/queue.o
 .debug_ranges  0x0000000000000000      0x188 build/default/debug/_ext/404212886/queue.o
 .debug_line    0x0000000000000000      0xfaa build/default/debug/_ext/404212886/queue.o
 .debug_str     0x0000000000000000      0xae1 build/default/debug/_ext/404212886/queue.o
 .comment       0x0000000000000000       0x2c build/default/debug/_ext/404212886/queue.o
 .debug_frame   0x0000000000000000      0x2bc build/default/debug/_ext/404212886/queue.o
 .ARM.attributes
                0x0000000000000000       0x34 build/default/debug/_ext/404212886/queue.o
 .text          0x0000000000000000        0x0 build/default/debug/_ext/404212886/FreeRTOS_tasks.o
 .data          0x0000000000000000        0x0 build/default/debug/_ext/404212886/FreeRTOS_tasks.o
 .bss           0x0000000000000000        0x0 build/default/debug/_ext/404212886/FreeRTOS_tasks.o
 .text.vTaskDelete
                0x0000000000000000       0xd4 build/default/debug/_ext/404212886/FreeRTOS_tasks.o
 .text.uxTaskPriorityGet
                0x0000000000000000       0x20 build/default/debug/_ext/404212886/FreeRTOS_tasks.o
 .text.uxTaskPriorityGetFromISR
                0x0000000000000000       0x28 build/default/debug/_ext/404212886/FreeRTOS_tasks.o
 .text.uxTaskBasePriorityGet
                0x0000000000000000       0x20 build/default/debug/_ext/404212886/FreeRTOS_tasks.o
 .text.uxTaskBasePriorityGetFromISR
                0x0000000000000000       0x28 build/default/debug/_ext/404212886/FreeRTOS_tasks.o
 .text.vTaskPrioritySet
                0x0000000000000000       0xf0 build/default/debug/_ext/404212886/FreeRTOS_tasks.o
 .text.vTaskResume
                0x0000000000000000       0xb0 build/default/debug/_ext/404212886/FreeRTOS_tasks.o
 .text.vTaskEndScheduler
                0x0000000000000000       0x34 build/default/debug/_ext/404212886/FreeRTOS_tasks.o
 .text.xTaskGetTickCount
                0x0000000000000000        0xc build/default/debug/_ext/404212886/FreeRTOS_tasks.o
 .text.xTaskGetTickCountFromISR
                0x0000000000000000        0xc build/default/debug/_ext/404212886/FreeRTOS_tasks.o
 .text.uxTaskGetNumberOfTasks
                0x0000000000000000        0xc build/default/debug/_ext/404212886/FreeRTOS_tasks.o
 .text.pcTaskGetName
                0x0000000000000000       0x14 build/default/debug/_ext/404212886/FreeRTOS_tasks.o
 .text.xTaskDelayUntil
                0x0000000000000000       0x6c build/default/debug/_ext/404212886/FreeRTOS_tasks.o
 .text.xTaskCatchUpTicks
                0x0000000000000000       0x24 build/default/debug/_ext/404212886/FreeRTOS_tasks.o
 .text.vTaskSuspend
                0x0000000000000000       0xcc build/default/debug/_ext/404212886/FreeRTOS_tasks.o
 .text.vTaskPlaceOnEventList
                0x0000000000000000       0x1c build/default/debug/_ext/404212886/FreeRTOS_tasks.o
 .text.vTaskPlaceOnUnorderedEventList
                0x0000000000000000       0x3c build/default/debug/_ext/404212886/FreeRTOS_tasks.o
 .text.xTaskRemoveFromEventList
                0x0000000000000000       0xd8 build/default/debug/_ext/404212886/FreeRTOS_tasks.o
 .text.vTaskRemoveFromUnorderedEventList
                0x0000000000000000       0xb0 build/default/debug/_ext/404212886/FreeRTOS_tasks.o
 .text.vTaskSetTimeOutState
                0x0000000000000000       0x24 build/default/debug/_ext/404212886/FreeRTOS_tasks.o
 .text.vTaskInternalSetTimeOutState
                0x0000000000000000       0x18 build/default/debug/_ext/404212886/FreeRTOS_tasks.o
 .text.xTaskCheckForTimeOut
                0x0000000000000000       0x60 build/default/debug/_ext/404212886/FreeRTOS_tasks.o
 .text.vTaskMissedYield
                0x0000000000000000        0xc build/default/debug/_ext/404212886/FreeRTOS_tasks.o
 .text.xTaskGetCurrentTaskHandle
                0x0000000000000000        0xc build/default/debug/_ext/404212886/FreeRTOS_tasks.o
 .text.xTaskGetCurrentTaskHandleForCore
                0x0000000000000000       0x10 build/default/debug/_ext/404212886/FreeRTOS_tasks.o
 .text.xTaskPriorityInherit
                0x0000000000000000       0xc4 build/default/debug/_ext/404212886/FreeRTOS_tasks.o
 .text.xTaskPriorityDisinherit
                0x0000000000000000       0x8c build/default/debug/_ext/404212886/FreeRTOS_tasks.o
 .text.vTaskPriorityDisinheritAfterTimeout
                0x0000000000000000       0x9c build/default/debug/_ext/404212886/FreeRTOS_tasks.o
 .text.uxTaskResetEventItemValue
                0x0000000000000000       0x18 build/default/debug/_ext/404212886/FreeRTOS_tasks.o
 .text.pvTaskIncrementMutexHeldCount
                0x0000000000000000       0x14 build/default/debug/_ext/404212886/FreeRTOS_tasks.o
 .text.ulTaskGenericNotifyTake
                0x0000000000000000       0xc0 build/default/debug/_ext/404212886/FreeRTOS_tasks.o
 .text.xTaskGenericNotifyWait
                0x0000000000000000       0xd8 build/default/debug/_ext/404212886/FreeRTOS_tasks.o
 .text.xTaskGenericNotify
                0x0000000000000000      0x118 build/default/debug/_ext/404212886/FreeRTOS_tasks.o
 .text.xTaskGenericNotifyFromISR
                0x0000000000000000      0x140 build/default/debug/_ext/404212886/FreeRTOS_tasks.o
 .text.vTaskGenericNotifyGiveFromISR
                0x0000000000000000       0xf0 build/default/debug/_ext/404212886/FreeRTOS_tasks.o
 .text.xTaskGenericNotifyStateClear
                0x0000000000000000       0x38 build/default/debug/_ext/404212886/FreeRTOS_tasks.o
 .text.ulTaskGenericNotifyValueClear
                0x0000000000000000       0x30 build/default/debug/_ext/404212886/FreeRTOS_tasks.o
 .text.vTaskResetState
                0x0000000000000000       0x64 build/default/debug/_ext/404212886/FreeRTOS_tasks.o
 .text          0x0000000000000000        0x0 build/default/debug/_ext/404212886/timers.o
 .data          0x0000000000000000        0x0 build/default/debug/_ext/404212886/timers.o
 .bss           0x0000000000000000        0x0 build/default/debug/_ext/404212886/timers.o
 .debug_info    0x0000000000000000       0x79 build/default/debug/_ext/404212886/timers.o
 .debug_abbrev  0x0000000000000000       0x26 build/default/debug/_ext/404212886/timers.o
 .debug_aranges
                0x0000000000000000       0x18 build/default/debug/_ext/404212886/timers.o
 .debug_line    0x0000000000000000       0x1d build/default/debug/_ext/404212886/timers.o
 .debug_str     0x0000000000000000      0x2a9 build/default/debug/_ext/404212886/timers.o
 .comment       0x0000000000000000       0x2c build/default/debug/_ext/404212886/timers.o
 .ARM.attributes
                0x0000000000000000       0x39 build/default/debug/_ext/404212886/timers.o
 .text          0x0000000000000000        0x0 build/default/debug/_ext/404212886/event_groups.o
 .data          0x0000000000000000        0x0 build/default/debug/_ext/404212886/event_groups.o
 .bss           0x0000000000000000        0x0 build/default/debug/_ext/404212886/event_groups.o
 .text.xEventGroupCreate
                0x0000000000000000       0x1a build/default/debug/_ext/404212886/event_groups.o
 .text.xEventGroupWaitBits
                0x0000000000000000       0xc0 build/default/debug/_ext/404212886/event_groups.o
 .text.xEventGroupClearBits
                0x0000000000000000       0x1a build/default/debug/_ext/404212886/event_groups.o
 .text.xEventGroupGetBitsFromISR
                0x0000000000000000       0x1c build/default/debug/_ext/404212886/event_groups.o
 .text.xEventGroupSetBits
                0x0000000000000000       0x66 build/default/debug/_ext/404212886/event_groups.o
 .text.xEventGroupSync
                0x0000000000000000       0x90 build/default/debug/_ext/404212886/event_groups.o
 .text.vEventGroupDelete
                0x0000000000000000       0x2a build/default/debug/_ext/404212886/event_groups.o
 .text.vEventGroupSetBitsCallback
                0x0000000000000000        0x8 build/default/debug/_ext/404212886/event_groups.o
 .text.vEventGroupClearBitsCallback
                0x0000000000000000        0x8 build/default/debug/_ext/404212886/event_groups.o
 .debug_info    0x0000000000000000      0xaf5 build/default/debug/_ext/404212886/event_groups.o
 .debug_abbrev  0x0000000000000000      0x2a6 build/default/debug/_ext/404212886/event_groups.o
 .debug_loc     0x0000000000000000      0xada build/default/debug/_ext/404212886/event_groups.o
 .debug_aranges
                0x0000000000000000       0x60 build/default/debug/_ext/404212886/event_groups.o
 .debug_ranges  0x0000000000000000       0x98 build/default/debug/_ext/404212886/event_groups.o
 .debug_line    0x0000000000000000      0x61b build/default/debug/_ext/404212886/event_groups.o
 .debug_str     0x0000000000000000      0x72e build/default/debug/_ext/404212886/event_groups.o
 .comment       0x0000000000000000       0x2c build/default/debug/_ext/404212886/event_groups.o
 .debug_frame   0x0000000000000000      0x100 build/default/debug/_ext/404212886/event_groups.o
 .ARM.attributes
                0x0000000000000000       0x34 build/default/debug/_ext/404212886/event_groups.o
 .text          0x0000000000000000        0x0 build/default/debug/_ext/404212886/stream_buffer.o
 .data          0x0000000000000000        0x0 build/default/debug/_ext/404212886/stream_buffer.o
 .bss           0x0000000000000000        0x0 build/default/debug/_ext/404212886/stream_buffer.o
 .text.prvBytesInBuffer
                0x0000000000000000       0x12 build/default/debug/_ext/404212886/stream_buffer.o
 .text.prvWriteBytesToBuffer
                0x0000000000000000       0x40 build/default/debug/_ext/404212886/stream_buffer.o
 .text.prvWriteMessageToBuffer
                0x0000000000000000       0x4e build/default/debug/_ext/404212886/stream_buffer.o
 .text.prvReadBytesFromBuffer
                0x0000000000000000       0x42 build/default/debug/_ext/404212886/stream_buffer.o
 .text.prvReadMessageFromBuffer
                0x0000000000000000       0x4e build/default/debug/_ext/404212886/stream_buffer.o
 .text.xStreamBufferGenericCreate
                0x0000000000000000       0x50 build/default/debug/_ext/404212886/stream_buffer.o
 .text.vStreamBufferDelete
                0x0000000000000000       0x1a build/default/debug/_ext/404212886/stream_buffer.o
 .text.xStreamBufferReset
                0x0000000000000000       0x48 build/default/debug/_ext/404212886/stream_buffer.o
 .text.xStreamBufferResetFromISR
                0x0000000000000000       0x58 build/default/debug/_ext/404212886/stream_buffer.o
 .text.xStreamBufferSetTriggerLevel
                0x0000000000000000       0x14 build/default/debug/_ext/404212886/stream_buffer.o
 .text.xStreamBufferSpacesAvailable
                0x0000000000000000       0x20 build/default/debug/_ext/404212886/stream_buffer.o
 .text.xStreamBufferBytesAvailable
                0x0000000000000000        0x8 build/default/debug/_ext/404212886/stream_buffer.o
 .text.xStreamBufferSend
                0x0000000000000000       0xd8 build/default/debug/_ext/404212886/stream_buffer.o
 .text.xStreamBufferSendFromISR
                0x0000000000000000       0x78 build/default/debug/_ext/404212886/stream_buffer.o
 .text.xStreamBufferReceive
                0x0000000000000000       0xb4 build/default/debug/_ext/404212886/stream_buffer.o
 .text.xStreamBufferNextMessageLengthBytes
                0x0000000000000000       0x32 build/default/debug/_ext/404212886/stream_buffer.o
 .text.xStreamBufferReceiveFromISR
                0x0000000000000000       0x6c build/default/debug/_ext/404212886/stream_buffer.o
 .text.xStreamBufferIsEmpty
                0x0000000000000000        0xe build/default/debug/_ext/404212886/stream_buffer.o
 .text.xStreamBufferIsFull
                0x0000000000000000       0x18 build/default/debug/_ext/404212886/stream_buffer.o
 .text.xStreamBufferSendCompletedFromISR
                0x0000000000000000       0x40 build/default/debug/_ext/404212886/stream_buffer.o
 .text.xStreamBufferReceiveCompletedFromISR
                0x0000000000000000       0x40 build/default/debug/_ext/404212886/stream_buffer.o
 .text.uxStreamBufferGetStreamBufferNotificationIndex
                0x0000000000000000        0x4 build/default/debug/_ext/404212886/stream_buffer.o
 .text.vStreamBufferSetStreamBufferNotificationIndex
                0x0000000000000000        0x4 build/default/debug/_ext/404212886/stream_buffer.o
 .debug_info    0x0000000000000000     0x18bf build/default/debug/_ext/404212886/stream_buffer.o
 .debug_abbrev  0x0000000000000000      0x31c build/default/debug/_ext/404212886/stream_buffer.o
 .debug_loc     0x0000000000000000     0x1c6c build/default/debug/_ext/404212886/stream_buffer.o
 .debug_aranges
                0x0000000000000000       0xd0 build/default/debug/_ext/404212886/stream_buffer.o
 .debug_ranges  0x0000000000000000       0xe0 build/default/debug/_ext/404212886/stream_buffer.o
 .debug_line    0x0000000000000000      0xc81 build/default/debug/_ext/404212886/stream_buffer.o
 .debug_str     0x0000000000000000      0xa83 build/default/debug/_ext/404212886/stream_buffer.o
 .comment       0x0000000000000000       0x2c build/default/debug/_ext/404212886/stream_buffer.o
 .debug_frame   0x0000000000000000      0x2c0 build/default/debug/_ext/404212886/stream_buffer.o
 .ARM.attributes
                0x0000000000000000       0x34 build/default/debug/_ext/404212886/stream_buffer.o
 .text          0x0000000000000000        0x0 build/default/debug/_ext/1360937237/main.o
 .data          0x0000000000000000        0x0 build/default/debug/_ext/1360937237/main.o
 .bss           0x0000000000000000        0x0 build/default/debug/_ext/1360937237/main.o
 .text          0x0000000000000000        0x0 build/default/debug/_ext/1360937237/neopixel.o
 .data          0x0000000000000000        0x0 build/default/debug/_ext/1360937237/neopixel.o
 .bss           0x0000000000000000        0x0 build/default/debug/_ext/1360937237/neopixel.o
 .text.NeoPixel_Clear
                0x0000000000000000       0x1a build/default/debug/_ext/1360937237/neopixel.o
 .text.NeoPixel_Rainbow
                0x0000000000000000       0x58 build/default/debug/_ext/1360937237/neopixel.o
 .text.NeoPixel_Fire
                0x0000000000000000       0xcc build/default/debug/_ext/1360937237/neopixel.o
 .text          0x0000000000000000        0x0 build/default/debug/_ext/1360937237/dsun_sensor.o
 .data          0x0000000000000000        0x0 build/default/debug/_ext/1360937237/dsun_sensor.o
 .bss           0x0000000000000000        0x0 build/default/debug/_ext/1360937237/dsun_sensor.o
 .text.dsun_read_raw
                0x0000000000000000       0x14 build/default/debug/_ext/1360937237/dsun_sensor.o
 .text.dsun_get_state
                0x0000000000000000       0x64 build/default/debug/_ext/1360937237/dsun_sensor.o
 .text.dsun_sensor_init
                0x0000000000000000       0x30 build/default/debug/_ext/1360937237/dsun_sensor.o
 .text.dsun_object_detected
                0x0000000000000000       0x10 build/default/debug/_ext/1360937237/dsun_sensor.o
 .text.dsun_object_just_detected
                0x0000000000000000       0x20 build/default/debug/_ext/1360937237/dsun_sensor.o
 .text.dsun_object_just_lost
                0x0000000000000000       0x1c build/default/debug/_ext/1360937237/dsun_sensor.o
 .bss.last_change_time
                0x0000000000000000        0x4 build/default/debug/_ext/1360937237/dsun_sensor.o
 .bss.sensor_initialized
                0x0000000000000000        0x1 build/default/debug/_ext/1360937237/dsun_sensor.o
 .bss.time_counter.8856
                0x0000000000000000        0x4 build/default/debug/_ext/1360937237/dsun_sensor.o
 .data.current_state
                0x0000000000000000        0x1 build/default/debug/_ext/1360937237/dsun_sensor.o
 .data.previous_state
                0x0000000000000000        0x1 build/default/debug/_ext/1360937237/dsun_sensor.o
 .debug_info    0x0000000000000000      0x492 build/default/debug/_ext/1360937237/dsun_sensor.o
 .debug_abbrev  0x0000000000000000      0x180 build/default/debug/_ext/1360937237/dsun_sensor.o
 .debug_loc     0x0000000000000000      0x1a0 build/default/debug/_ext/1360937237/dsun_sensor.o
 .debug_aranges
                0x0000000000000000       0x48 build/default/debug/_ext/1360937237/dsun_sensor.o
 .debug_ranges  0x0000000000000000       0x38 build/default/debug/_ext/1360937237/dsun_sensor.o
 .debug_line    0x0000000000000000      0x230 build/default/debug/_ext/1360937237/dsun_sensor.o
 .debug_str     0x0000000000000000      0x700 build/default/debug/_ext/1360937237/dsun_sensor.o
 .comment       0x0000000000000000       0x2c build/default/debug/_ext/1360937237/dsun_sensor.o
 .debug_frame   0x0000000000000000       0xa0 build/default/debug/_ext/1360937237/dsun_sensor.o
 .ARM.attributes
                0x0000000000000000       0x34 build/default/debug/_ext/1360937237/dsun_sensor.o
 .text          0x0000000000000000        0x0 build/default/debug/_ext/1360937237/lcd_i2c.o
 .data          0x0000000000000000        0x0 build/default/debug/_ext/1360937237/lcd_i2c.o
 .bss           0x0000000000000000        0x0 build/default/debug/_ext/1360937237/lcd_i2c.o
 .debug_line    0x0000000000000000        0x0 build/default/debug/_ext/1360937237/lcd_i2c.o
 .debug_str     0x0000000000000000      0x1ed build/default/debug/_ext/1360937237/lcd_i2c.o
 .comment       0x0000000000000000       0x2c build/default/debug/_ext/1360937237/lcd_i2c.o
 .ARM.attributes
                0x0000000000000000       0x39 build/default/debug/_ext/1360937237/lcd_i2c.o
 .text          0x0000000000000000        0x0 build/default/debug/_ext/1360937237/actuator.o
 .data          0x0000000000000000        0x0 build/default/debug/_ext/1360937237/actuator.o
 .bss           0x0000000000000000        0x0 build/default/debug/_ext/1360937237/actuator.o
 .text          0x0000000000000000        0x0 build/default/debug/_ext/1360937237/dcc_stdio.o
 .data          0x0000000000000000        0x0 build/default/debug/_ext/1360937237/dcc_stdio.o
 .bss           0x0000000000000000        0x0 build/default/debug/_ext/1360937237/dcc_stdio.o
 .text.dbg_write
                0x0000000000000000       0x30 build/default/debug/_ext/1360937237/dcc_stdio.o
 .text.dbg_trace_point
                0x0000000000000000        0xa build/default/debug/_ext/1360937237/dcc_stdio.o
 .text.dbg_write_u32
                0x0000000000000000       0x28 build/default/debug/_ext/1360937237/dcc_stdio.o
 .text.dbg_write_u16
                0x0000000000000000       0x44 build/default/debug/_ext/1360937237/dcc_stdio.o
 .text.dbg_write_u8
                0x0000000000000000       0x54 build/default/debug/_ext/1360937237/dcc_stdio.o
 .text.dbg_write_str
                0x0000000000000000       0x78 build/default/debug/_ext/1360937237/dcc_stdio.o
 .text.dbg_write_char
                0x0000000000000000        0xe build/default/debug/_ext/1360937237/dcc_stdio.o
 .debug_info    0x0000000000000000      0x3c7 build/default/debug/_ext/1360937237/dcc_stdio.o
 .debug_abbrev  0x0000000000000000      0x127 build/default/debug/_ext/1360937237/dcc_stdio.o
 .debug_loc     0x0000000000000000      0x459 build/default/debug/_ext/1360937237/dcc_stdio.o
 .debug_aranges
                0x0000000000000000       0x50 build/default/debug/_ext/1360937237/dcc_stdio.o
 .debug_ranges  0x0000000000000000       0x40 build/default/debug/_ext/1360937237/dcc_stdio.o
 .debug_line    0x0000000000000000      0x2ac build/default/debug/_ext/1360937237/dcc_stdio.o
 .debug_str     0x0000000000000000      0x31f build/default/debug/_ext/1360937237/dcc_stdio.o
 .comment       0x0000000000000000       0x2c build/default/debug/_ext/1360937237/dcc_stdio.o
 .debug_frame   0x0000000000000000       0xc0 build/default/debug/_ext/1360937237/dcc_stdio.o
 .ARM.attributes
                0x0000000000000000       0x34 build/default/debug/_ext/1360937237/dcc_stdio.o
 .text          0x0000000000000000        0x0 build/default/debug/_ext/504274921/plib_sercom5_usart.o
 .data          0x0000000000000000        0x0 build/default/debug/_ext/504274921/plib_sercom5_usart.o
 .bss           0x0000000000000000        0x0 build/default/debug/_ext/504274921/plib_sercom5_usart.o
 .text.SERCOM5_USART_FrequencyGet
                0x0000000000000000        0x8 build/default/debug/_ext/504274921/plib_sercom5_usart.o
 .text.SERCOM5_USART_SerialSetup
                0x0000000000000000       0xfc build/default/debug/_ext/504274921/plib_sercom5_usart.o
 .text.SERCOM5_USART_ErrorGet
                0x0000000000000000       0x1c build/default/debug/_ext/504274921/plib_sercom5_usart.o
 .text.SERCOM5_USART_Enable
                0x0000000000000000       0x20 build/default/debug/_ext/504274921/plib_sercom5_usart.o
 .text.SERCOM5_USART_Disable
                0x0000000000000000       0x20 build/default/debug/_ext/504274921/plib_sercom5_usart.o
 .text.SERCOM5_USART_TransmitterEnable
                0x0000000000000000       0x18 build/default/debug/_ext/504274921/plib_sercom5_usart.o
 .text.SERCOM5_USART_TransmitterDisable
                0x0000000000000000       0x18 build/default/debug/_ext/504274921/plib_sercom5_usart.o
 .text.SERCOM5_USART_TransmitterIsReady
                0x0000000000000000       0x10 build/default/debug/_ext/504274921/plib_sercom5_usart.o
 .text.SERCOM5_USART_WriteByte
                0x0000000000000000       0x18 build/default/debug/_ext/504274921/plib_sercom5_usart.o
 .text.SERCOM5_USART_TransmitComplete
                0x0000000000000000       0x10 build/default/debug/_ext/504274921/plib_sercom5_usart.o
 .text.SERCOM5_USART_ReceiverEnable
                0x0000000000000000       0x18 build/default/debug/_ext/504274921/plib_sercom5_usart.o
 .text.SERCOM5_USART_ReceiverDisable
                0x0000000000000000       0x18 build/default/debug/_ext/504274921/plib_sercom5_usart.o
 .text.SERCOM5_USART_ReceiverIsReady
                0x0000000000000000       0x10 build/default/debug/_ext/504274921/plib_sercom5_usart.o
 .text.SERCOM5_USART_ReadByte
                0x0000000000000000        0xc build/default/debug/_ext/504274921/plib_sercom5_usart.o
 .text          0x0000000000000000        0x0 c:/program files/microchip/xc32/v4.60/bin/bin/../../lib/gcc/pic32c/8.3.1/../../../../pic32c/lib/thumb/v7e-m+fp/hard\libpic32c.a(data_init.o)
 .data          0x0000000000000000        0x0 c:/program files/microchip/xc32/v4.60/bin/bin/../../lib/gcc/pic32c/8.3.1/../../../../pic32c/lib/thumb/v7e-m+fp/hard\libpic32c.a(data_init.o)
 .xc_stack_usage
                0x0000000000000000       0x68 c:/program files/microchip/xc32/v4.60/bin/bin/../../lib/gcc/pic32c/8.3.1/../../../../pic32c/lib/thumb/v7e-m+fp/hard\libpic32c.a(data_init.o)
 .xc_stack_usage.hdr
                0x0000000000000000        0xe c:/program files/microchip/xc32/v4.60/bin/bin/../../lib/gcc/pic32c/8.3.1/../../../../pic32c/lib/thumb/v7e-m+fp/hard\libpic32c.a(data_init.o)
 .text          0x0000000000000000        0x0 c:/program files/microchip/xc32/v4.60/bin/bin/../../lib/gcc/pic32c/8.3.1/../../../../pic32c/lib/thumb/v7e-m+fp/hard\libc-size-musl.a(memcpy.o)
 .data          0x0000000000000000        0x0 c:/program files/microchip/xc32/v4.60/bin/bin/../../lib/gcc/pic32c/8.3.1/../../../../pic32c/lib/thumb/v7e-m+fp/hard\libc-size-musl.a(memcpy.o)
 .bss           0x0000000000000000        0x0 c:/program files/microchip/xc32/v4.60/bin/bin/../../lib/gcc/pic32c/8.3.1/../../../../pic32c/lib/thumb/v7e-m+fp/hard\libc-size-musl.a(memcpy.o)
 .xc_stack_usage
                0x0000000000000000       0x14 c:/program files/microchip/xc32/v4.60/bin/bin/../../lib/gcc/pic32c/8.3.1/../../../../pic32c/lib/thumb/v7e-m+fp/hard\libc-size-musl.a(memcpy.o)
 .xc_stack_usage.hdr
                0x0000000000000000        0xe c:/program files/microchip/xc32/v4.60/bin/bin/../../lib/gcc/pic32c/8.3.1/../../../../pic32c/lib/thumb/v7e-m+fp/hard\libc-size-musl.a(memcpy.o)
 .text          0x0000000000000000        0x0 c:/program files/microchip/xc32/v4.60/bin/bin/../../lib/gcc/pic32c/8.3.1/../../../../pic32c/lib/thumb/v7e-m+fp/hard\libc-size-musl.a(memset.o)
 .data          0x0000000000000000        0x0 c:/program files/microchip/xc32/v4.60/bin/bin/../../lib/gcc/pic32c/8.3.1/../../../../pic32c/lib/thumb/v7e-m+fp/hard\libc-size-musl.a(memset.o)
 .bss           0x0000000000000000        0x0 c:/program files/microchip/xc32/v4.60/bin/bin/../../lib/gcc/pic32c/8.3.1/../../../../pic32c/lib/thumb/v7e-m+fp/hard\libc-size-musl.a(memset.o)
 .xc_stack_usage
                0x0000000000000000       0x14 c:/program files/microchip/xc32/v4.60/bin/bin/../../lib/gcc/pic32c/8.3.1/../../../../pic32c/lib/thumb/v7e-m+fp/hard\libc-size-musl.a(memset.o)
 .xc_stack_usage.hdr
                0x0000000000000000        0xe c:/program files/microchip/xc32/v4.60/bin/bin/../../lib/gcc/pic32c/8.3.1/../../../../pic32c/lib/thumb/v7e-m+fp/hard\libc-size-musl.a(memset.o)
 .text          0x0000000000000000        0x0 c:/program files/microchip/xc32/v4.60/bin/bin/../../lib/gcc/pic32c/8.3.1/../../../../pic32c/lib/thumb/v7e-m+fp/hard\libg-musl.a(__libc_start_main.o)
 .data          0x0000000000000000        0x0 c:/program files/microchip/xc32/v4.60/bin/bin/../../lib/gcc/pic32c/8.3.1/../../../../pic32c/lib/thumb/v7e-m+fp/hard\libg-musl.a(__libc_start_main.o)
 .bss           0x0000000000000000        0x0 c:/program files/microchip/xc32/v4.60/bin/bin/../../lib/gcc/pic32c/8.3.1/../../../../pic32c/lib/thumb/v7e-m+fp/hard\libg-musl.a(__libc_start_main.o)
 .xc_stack_usage
                0x0000000000000000       0x34 c:/program files/microchip/xc32/v4.60/bin/bin/../../lib/gcc/pic32c/8.3.1/../../../../pic32c/lib/thumb/v7e-m+fp/hard\libg-musl.a(__libc_start_main.o)
 .xc_stack_usage.hdr
                0x0000000000000000        0xe c:/program files/microchip/xc32/v4.60/bin/bin/../../lib/gcc/pic32c/8.3.1/../../../../pic32c/lib/thumb/v7e-m+fp/hard\libg-musl.a(__libc_start_main.o)
 .text          0x0000000000000000        0x0 c:/program files/microchip/xc32/v4.60/bin/bin/../../lib/gcc/pic32c/8.3.1/../../../../pic32c/lib/thumb/v7e-m+fp/hard\libg-musl.a(libc.o)
 .data          0x0000000000000000        0x0 c:/program files/microchip/xc32/v4.60/bin/bin/../../lib/gcc/pic32c/8.3.1/../../../../pic32c/lib/thumb/v7e-m+fp/hard\libg-musl.a(libc.o)
 .xc_stack_usage.hdr
                0x0000000000000000        0xe c:/program files/microchip/xc32/v4.60/bin/bin/../../lib/gcc/pic32c/8.3.1/../../../../pic32c/lib/thumb/v7e-m+fp/hard\libg-musl.a(libc.o)
 .text          0x0000000000000000        0x0 c:/program files/microchip/xc32/v4.60/bin/bin/../../lib/gcc/pic32c/8.3.1/../../../../pic32c/lib/thumb/v7e-m+fp/hard\libg-musl.a(__sio_printf_nu.o)
 .data          0x0000000000000000        0x0 c:/program files/microchip/xc32/v4.60/bin/bin/../../lib/gcc/pic32c/8.3.1/../../../../pic32c/lib/thumb/v7e-m+fp/hard\libg-musl.a(__sio_printf_nu.o)
 .bss           0x0000000000000000        0x0 c:/program files/microchip/xc32/v4.60/bin/bin/../../lib/gcc/pic32c/8.3.1/../../../../pic32c/lib/thumb/v7e-m+fp/hard\libg-musl.a(__sio_printf_nu.o)
 .xc_stack_usage
                0x0000000000000000       0x38 c:/program files/microchip/xc32/v4.60/bin/bin/../../lib/gcc/pic32c/8.3.1/../../../../pic32c/lib/thumb/v7e-m+fp/hard\libg-musl.a(__sio_printf_nu.o)
 .text.__sio_printf_nu
                0x0000000000000000       0x12 c:/program files/microchip/xc32/v4.60/bin/bin/../../lib/gcc/pic32c/8.3.1/../../../../pic32c/lib/thumb/v7e-m+fp/hard\libg-musl.a(__sio_printf_nu.o)
 .xc_stack_usage.hdr
                0x0000000000000000        0xe c:/program files/microchip/xc32/v4.60/bin/bin/../../lib/gcc/pic32c/8.3.1/../../../../pic32c/lib/thumb/v7e-m+fp/hard\libg-musl.a(__sio_printf_nu.o)
 .text          0x0000000000000000        0x0 c:/program files/microchip/xc32/v4.60/bin/bin/../../lib/gcc/pic32c/8.3.1/../../../../pic32c/lib/thumb/v7e-m+fp/hard\libg-musl.a(__fmt_u.o)
 .data          0x0000000000000000        0x0 c:/program files/microchip/xc32/v4.60/bin/bin/../../lib/gcc/pic32c/8.3.1/../../../../pic32c/lib/thumb/v7e-m+fp/hard\libg-musl.a(__fmt_u.o)
 .bss           0x0000000000000000        0x0 c:/program files/microchip/xc32/v4.60/bin/bin/../../lib/gcc/pic32c/8.3.1/../../../../pic32c/lib/thumb/v7e-m+fp/hard\libg-musl.a(__fmt_u.o)
 .xc_stack_usage
                0x0000000000000000       0x15 c:/program files/microchip/xc32/v4.60/bin/bin/../../lib/gcc/pic32c/8.3.1/../../../../pic32c/lib/thumb/v7e-m+fp/hard\libg-musl.a(__fmt_u.o)
 .xc_stack_usage.hdr
                0x0000000000000000        0xe c:/program files/microchip/xc32/v4.60/bin/bin/../../lib/gcc/pic32c/8.3.1/../../../../pic32c/lib/thumb/v7e-m+fp/hard\libg-musl.a(__fmt_u.o)
 .text          0x0000000000000000        0x0 c:/program files/microchip/xc32/v4.60/bin/bin/../../lib/gcc/pic32c/8.3.1/../../../../pic32c/lib/thumb/v7e-m+fp/hard\libg-musl.a(__pop_int.o)
 .data          0x0000000000000000        0x0 c:/program files/microchip/xc32/v4.60/bin/bin/../../lib/gcc/pic32c/8.3.1/../../../../pic32c/lib/thumb/v7e-m+fp/hard\libg-musl.a(__pop_int.o)
 .bss           0x0000000000000000        0x0 c:/program files/microchip/xc32/v4.60/bin/bin/../../lib/gcc/pic32c/8.3.1/../../../../pic32c/lib/thumb/v7e-m+fp/hard\libg-musl.a(__pop_int.o)
 .xc_stack_usage
                0x0000000000000000       0x17 c:/program files/microchip/xc32/v4.60/bin/bin/../../lib/gcc/pic32c/8.3.1/../../../../pic32c/lib/thumb/v7e-m+fp/hard\libg-musl.a(__pop_int.o)
 .xc_stack_usage.hdr
                0x0000000000000000        0xe c:/program files/microchip/xc32/v4.60/bin/bin/../../lib/gcc/pic32c/8.3.1/../../../../pic32c/lib/thumb/v7e-m+fp/hard\libg-musl.a(__pop_int.o)
 .text          0x0000000000000000        0x0 c:/program files/microchip/xc32/v4.60/bin/bin/../../lib/gcc/pic32c/8.3.1/../../../../pic32c/lib/thumb/v7e-m+fp/hard\libg-musl.a(__pop_ptr.o)
 .data          0x0000000000000000        0x0 c:/program files/microchip/xc32/v4.60/bin/bin/../../lib/gcc/pic32c/8.3.1/../../../../pic32c/lib/thumb/v7e-m+fp/hard\libg-musl.a(__pop_ptr.o)
 .bss           0x0000000000000000        0x0 c:/program files/microchip/xc32/v4.60/bin/bin/../../lib/gcc/pic32c/8.3.1/../../../../pic32c/lib/thumb/v7e-m+fp/hard\libg-musl.a(__pop_ptr.o)
 .xc_stack_usage
                0x0000000000000000       0x17 c:/program files/microchip/xc32/v4.60/bin/bin/../../lib/gcc/pic32c/8.3.1/../../../../pic32c/lib/thumb/v7e-m+fp/hard\libg-musl.a(__pop_ptr.o)
 .xc_stack_usage.hdr
                0x0000000000000000        0xe c:/program files/microchip/xc32/v4.60/bin/bin/../../lib/gcc/pic32c/8.3.1/../../../../pic32c/lib/thumb/v7e-m+fp/hard\libg-musl.a(__pop_ptr.o)
 .text          0x0000000000000000        0x0 c:/program files/microchip/xc32/v4.60/bin/bin/../../lib/gcc/pic32c/8.3.1/../../../../pic32c/lib/thumb/v7e-m+fp/hard\libg-musl.a(__printf_core.o)
 .data          0x0000000000000000        0x0 c:/program files/microchip/xc32/v4.60/bin/bin/../../lib/gcc/pic32c/8.3.1/../../../../pic32c/lib/thumb/v7e-m+fp/hard\libg-musl.a(__printf_core.o)
 .bss           0x0000000000000000        0x0 c:/program files/microchip/xc32/v4.60/bin/bin/../../lib/gcc/pic32c/8.3.1/../../../../pic32c/lib/thumb/v7e-m+fp/hard\libg-musl.a(__printf_core.o)
 .xc_stack_usage
                0x0000000000000000       0xaf c:/program files/microchip/xc32/v4.60/bin/bin/../../lib/gcc/pic32c/8.3.1/../../../../pic32c/lib/thumb/v7e-m+fp/hard\libg-musl.a(__printf_core.o)
 .text.__string_out
                0x0000000000000000       0x28 c:/program files/microchip/xc32/v4.60/bin/bin/../../lib/gcc/pic32c/8.3.1/../../../../pic32c/lib/thumb/v7e-m+fp/hard\libg-musl.a(__printf_core.o)
 .xc_stack_usage.hdr
                0x0000000000000000        0xe c:/program files/microchip/xc32/v4.60/bin/bin/../../lib/gcc/pic32c/8.3.1/../../../../pic32c/lib/thumb/v7e-m+fp/hard\libg-musl.a(__printf_core.o)
 .text          0x0000000000000000        0x0 c:/program files/microchip/xc32/v4.60/bin/bin/../../lib/gcc/pic32c/8.3.1/../../../../pic32c/lib/thumb/v7e-m+fp/hard\libg-musl.a(stdin.o)
 .xc_stack_usage
                0x0000000000000000       0x33 c:/program files/microchip/xc32/v4.60/bin/bin/../../lib/gcc/pic32c/8.3.1/../../../../pic32c/lib/thumb/v7e-m+fp/hard\libg-musl.a(stdin.o)
 .xc_stack_usage.hdr
                0x0000000000000000        0xe c:/program files/microchip/xc32/v4.60/bin/bin/../../lib/gcc/pic32c/8.3.1/../../../../pic32c/lib/thumb/v7e-m+fp/hard\libg-musl.a(stdin.o)
 .text          0x0000000000000000        0x0 c:/program files/microchip/xc32/v4.60/bin/bin/../../lib/gcc/pic32c/8.3.1/../../../../pic32c/lib/thumb/v7e-m+fp/hard\libg-musl.a(stdout.o)
 .xc_stack_usage
                0x0000000000000000       0x51 c:/program files/microchip/xc32/v4.60/bin/bin/../../lib/gcc/pic32c/8.3.1/../../../../pic32c/lib/thumb/v7e-m+fp/hard\libg-musl.a(stdout.o)
 .text.__dummy  0x0000000000000000        0x8 c:/program files/microchip/xc32/v4.60/bin/bin/../../lib/gcc/pic32c/8.3.1/../../../../pic32c/lib/thumb/v7e-m+fp/hard\libg-musl.a(stdout.o)
 .xc_stack_usage.hdr
                0x0000000000000000        0xe c:/program files/microchip/xc32/v4.60/bin/bin/../../lib/gcc/pic32c/8.3.1/../../../../pic32c/lib/thumb/v7e-m+fp/hard\libg-musl.a(stdout.o)
 .text          0x0000000000000000        0x0 c:/program files/microchip/xc32/v4.60/bin/bin/../../lib/gcc/pic32c/8.3.1/../../../../pic32c/lib/thumb/v7e-m+fp/hard\libg-musl.a(puts.o)
 .data          0x0000000000000000        0x0 c:/program files/microchip/xc32/v4.60/bin/bin/../../lib/gcc/pic32c/8.3.1/../../../../pic32c/lib/thumb/v7e-m+fp/hard\libg-musl.a(puts.o)
 .bss           0x0000000000000000        0x0 c:/program files/microchip/xc32/v4.60/bin/bin/../../lib/gcc/pic32c/8.3.1/../../../../pic32c/lib/thumb/v7e-m+fp/hard\libg-musl.a(puts.o)
 .xc_stack_usage
                0x0000000000000000       0x12 c:/program files/microchip/xc32/v4.60/bin/bin/../../lib/gcc/pic32c/8.3.1/../../../../pic32c/lib/thumb/v7e-m+fp/hard\libg-musl.a(puts.o)
 .xc_stack_usage.hdr
                0x0000000000000000        0xe c:/program files/microchip/xc32/v4.60/bin/bin/../../lib/gcc/pic32c/8.3.1/../../../../pic32c/lib/thumb/v7e-m+fp/hard\libg-musl.a(puts.o)
 .text          0x0000000000000000        0x0 c:/program files/microchip/xc32/v4.60/bin/bin/../../lib/gcc/pic32c/8.3.1/../../../../pic32c/lib/thumb/v7e-m+fp/hard\libg-musl.a(setbuf.o)
 .data          0x0000000000000000        0x0 c:/program files/microchip/xc32/v4.60/bin/bin/../../lib/gcc/pic32c/8.3.1/../../../../pic32c/lib/thumb/v7e-m+fp/hard\libg-musl.a(setbuf.o)
 .bss           0x0000000000000000        0x0 c:/program files/microchip/xc32/v4.60/bin/bin/../../lib/gcc/pic32c/8.3.1/../../../../pic32c/lib/thumb/v7e-m+fp/hard\libg-musl.a(setbuf.o)
 .xc_stack_usage
                0x0000000000000000       0x14 c:/program files/microchip/xc32/v4.60/bin/bin/../../lib/gcc/pic32c/8.3.1/../../../../pic32c/lib/thumb/v7e-m+fp/hard\libg-musl.a(setbuf.o)
 .xc_stack_usage.hdr
                0x0000000000000000        0xe c:/program files/microchip/xc32/v4.60/bin/bin/../../lib/gcc/pic32c/8.3.1/../../../../pic32c/lib/thumb/v7e-m+fp/hard\libg-musl.a(setbuf.o)
 .text          0x0000000000000000        0x0 c:/program files/microchip/xc32/v4.60/bin/bin/../../lib/gcc/pic32c/8.3.1/../../../../pic32c/lib/thumb/v7e-m+fp/hard\libg-musl.a(atoi.o)
 .data          0x0000000000000000        0x0 c:/program files/microchip/xc32/v4.60/bin/bin/../../lib/gcc/pic32c/8.3.1/../../../../pic32c/lib/thumb/v7e-m+fp/hard\libg-musl.a(atoi.o)
 .bss           0x0000000000000000        0x0 c:/program files/microchip/xc32/v4.60/bin/bin/../../lib/gcc/pic32c/8.3.1/../../../../pic32c/lib/thumb/v7e-m+fp/hard\libg-musl.a(atoi.o)
 .xc_stack_usage
                0x0000000000000000       0x12 c:/program files/microchip/xc32/v4.60/bin/bin/../../lib/gcc/pic32c/8.3.1/../../../../pic32c/lib/thumb/v7e-m+fp/hard\libg-musl.a(atoi.o)
 .xc_stack_usage.hdr
                0x0000000000000000        0xe c:/program files/microchip/xc32/v4.60/bin/bin/../../lib/gcc/pic32c/8.3.1/../../../../pic32c/lib/thumb/v7e-m+fp/hard\libg-musl.a(atoi.o)
 .text          0x0000000000000000        0x0 c:/program files/microchip/xc32/v4.60/bin/bin/../../lib/gcc/pic32c/8.3.1/../../../../pic32c/lib/thumb/v7e-m+fp/hard\libg-musl.a(tolower.o)
 .data          0x0000000000000000        0x0 c:/program files/microchip/xc32/v4.60/bin/bin/../../lib/gcc/pic32c/8.3.1/../../../../pic32c/lib/thumb/v7e-m+fp/hard\libg-musl.a(tolower.o)
 .bss           0x0000000000000000        0x0 c:/program files/microchip/xc32/v4.60/bin/bin/../../lib/gcc/pic32c/8.3.1/../../../../pic32c/lib/thumb/v7e-m+fp/hard\libg-musl.a(tolower.o)
 .xc_stack_usage
                0x0000000000000000       0x2e c:/program files/microchip/xc32/v4.60/bin/bin/../../lib/gcc/pic32c/8.3.1/../../../../pic32c/lib/thumb/v7e-m+fp/hard\libg-musl.a(tolower.o)
 .text.__tolower_l
                0x0000000000000000        0x4 c:/program files/microchip/xc32/v4.60/bin/bin/../../lib/gcc/pic32c/8.3.1/../../../../pic32c/lib/thumb/v7e-m+fp/hard\libg-musl.a(tolower.o)
 .xc_stack_usage.hdr
                0x0000000000000000        0xe c:/program files/microchip/xc32/v4.60/bin/bin/../../lib/gcc/pic32c/8.3.1/../../../../pic32c/lib/thumb/v7e-m+fp/hard\libg-musl.a(tolower.o)
 .text          0x0000000000000000        0x0 c:/program files/microchip/xc32/v4.60/bin/bin/../../lib/gcc/pic32c/8.3.1/../../../../pic32c/lib/thumb/v7e-m+fp/hard\libg-musl.a(__environ.o)
 .data          0x0000000000000000        0x0 c:/program files/microchip/xc32/v4.60/bin/bin/../../lib/gcc/pic32c/8.3.1/../../../../pic32c/lib/thumb/v7e-m+fp/hard\libg-musl.a(__environ.o)
 .xc_stack_usage.hdr
                0x0000000000000000        0xe c:/program files/microchip/xc32/v4.60/bin/bin/../../lib/gcc/pic32c/8.3.1/../../../../pic32c/lib/thumb/v7e-m+fp/hard\libg-musl.a(__environ.o)
 .text          0x0000000000000000        0x0 c:/program files/microchip/xc32/v4.60/bin/bin/../../lib/gcc/pic32c/8.3.1/../../../../pic32c/lib/thumb/v7e-m+fp/hard\libg-musl.a(__errno_location.o)
 .data          0x0000000000000000        0x0 c:/program files/microchip/xc32/v4.60/bin/bin/../../lib/gcc/pic32c/8.3.1/../../../../pic32c/lib/thumb/v7e-m+fp/hard\libg-musl.a(__errno_location.o)
 .xc_stack_usage.hdr
                0x0000000000000000        0xe c:/program files/microchip/xc32/v4.60/bin/bin/../../lib/gcc/pic32c/8.3.1/../../../../pic32c/lib/thumb/v7e-m+fp/hard\libg-musl.a(__errno_location.o)
 .text          0x0000000000000000        0x0 c:/program files/microchip/xc32/v4.60/bin/bin/../../lib/gcc/pic32c/8.3.1/../../../../pic32c/lib/thumb/v7e-m+fp/hard\libg-musl.a(__int_vfprintf.o)
 .data          0x0000000000000000        0x0 c:/program files/microchip/xc32/v4.60/bin/bin/../../lib/gcc/pic32c/8.3.1/../../../../pic32c/lib/thumb/v7e-m+fp/hard\libg-musl.a(__int_vfprintf.o)
 .bss           0x0000000000000000        0x0 c:/program files/microchip/xc32/v4.60/bin/bin/../../lib/gcc/pic32c/8.3.1/../../../../pic32c/lib/thumb/v7e-m+fp/hard\libg-musl.a(__int_vfprintf.o)
 .xc_stack_usage
                0x0000000000000000       0x18 c:/program files/microchip/xc32/v4.60/bin/bin/../../lib/gcc/pic32c/8.3.1/../../../../pic32c/lib/thumb/v7e-m+fp/hard\libg-musl.a(__int_vfprintf.o)
 .xc_stack_usage.hdr
                0x0000000000000000        0xe c:/program files/microchip/xc32/v4.60/bin/bin/../../lib/gcc/pic32c/8.3.1/../../../../pic32c/lib/thumb/v7e-m+fp/hard\libg-musl.a(__int_vfprintf.o)
 .text          0x0000000000000000        0x0 c:/program files/microchip/xc32/v4.60/bin/bin/../../lib/gcc/pic32c/8.3.1/../../../../pic32c/lib/thumb/v7e-m+fp/hard\libg-musl.a(fputs.o)
 .data          0x0000000000000000        0x0 c:/program files/microchip/xc32/v4.60/bin/bin/../../lib/gcc/pic32c/8.3.1/../../../../pic32c/lib/thumb/v7e-m+fp/hard\libg-musl.a(fputs.o)
 .bss           0x0000000000000000        0x0 c:/program files/microchip/xc32/v4.60/bin/bin/../../lib/gcc/pic32c/8.3.1/../../../../pic32c/lib/thumb/v7e-m+fp/hard\libg-musl.a(fputs.o)
 .xc_stack_usage
                0x0000000000000000       0x13 c:/program files/microchip/xc32/v4.60/bin/bin/../../lib/gcc/pic32c/8.3.1/../../../../pic32c/lib/thumb/v7e-m+fp/hard\libg-musl.a(fputs.o)
 .xc_stack_usage.hdr
                0x0000000000000000        0xe c:/program files/microchip/xc32/v4.60/bin/bin/../../lib/gcc/pic32c/8.3.1/../../../../pic32c/lib/thumb/v7e-m+fp/hard\libg-musl.a(fputs.o)
 .text          0x0000000000000000        0x0 c:/program files/microchip/xc32/v4.60/bin/bin/../../lib/gcc/pic32c/8.3.1/../../../../pic32c/lib/thumb/v7e-m+fp/hard\libg-musl.a(__cvt_u.o)
 .data          0x0000000000000000        0x0 c:/program files/microchip/xc32/v4.60/bin/bin/../../lib/gcc/pic32c/8.3.1/../../../../pic32c/lib/thumb/v7e-m+fp/hard\libg-musl.a(__cvt_u.o)
 .bss           0x0000000000000000        0x0 c:/program files/microchip/xc32/v4.60/bin/bin/../../lib/gcc/pic32c/8.3.1/../../../../pic32c/lib/thumb/v7e-m+fp/hard\libg-musl.a(__cvt_u.o)
 .xc_stack_usage
                0x0000000000000000       0x15 c:/program files/microchip/xc32/v4.60/bin/bin/../../lib/gcc/pic32c/8.3.1/../../../../pic32c/lib/thumb/v7e-m+fp/hard\libg-musl.a(__cvt_u.o)
 .xc_stack_usage.hdr
                0x0000000000000000        0xe c:/program files/microchip/xc32/v4.60/bin/bin/../../lib/gcc/pic32c/8.3.1/../../../../pic32c/lib/thumb/v7e-m+fp/hard\libg-musl.a(__cvt_u.o)
 .text          0x0000000000000000        0x0 c:/program files/microchip/xc32/v4.60/bin/bin/../../lib/gcc/pic32c/8.3.1/../../../../pic32c/lib/thumb/v7e-m+fp/hard\libg-musl.a(__io_init_needed.o)
 .data          0x0000000000000000        0x0 c:/program files/microchip/xc32/v4.60/bin/bin/../../lib/gcc/pic32c/8.3.1/../../../../pic32c/lib/thumb/v7e-m+fp/hard\libg-musl.a(__io_init_needed.o)
 .bss           0x0000000000000000        0x0 c:/program files/microchip/xc32/v4.60/bin/bin/../../lib/gcc/pic32c/8.3.1/../../../../pic32c/lib/thumb/v7e-m+fp/hard\libg-musl.a(__io_init_needed.o)
 .xc_stack_usage
                0x0000000000000000       0x40 c:/program files/microchip/xc32/v4.60/bin/bin/../../lib/gcc/pic32c/8.3.1/../../../../pic32c/lib/thumb/v7e-m+fp/hard\libg-musl.a(__io_init_needed.o)
 .xc_stack_usage.hdr
                0x0000000000000000        0xe c:/program files/microchip/xc32/v4.60/bin/bin/../../lib/gcc/pic32c/8.3.1/../../../../pic32c/lib/thumb/v7e-m+fp/hard\libg-musl.a(__io_init_needed.o)
 .debug_info    0x0000000000000000       0xea c:/program files/microchip/xc32/v4.60/bin/bin/../../lib/gcc/pic32c/8.3.1/../../../../pic32c/lib/thumb/v7e-m+fp/hard\libg-musl.a(__io_init_needed.o)
 .debug_abbrev  0x0000000000000000       0x84 c:/program files/microchip/xc32/v4.60/bin/bin/../../lib/gcc/pic32c/8.3.1/../../../../pic32c/lib/thumb/v7e-m+fp/hard\libg-musl.a(__io_init_needed.o)
 .debug_aranges
                0x0000000000000000       0x28 c:/program files/microchip/xc32/v4.60/bin/bin/../../lib/gcc/pic32c/8.3.1/../../../../pic32c/lib/thumb/v7e-m+fp/hard\libg-musl.a(__io_init_needed.o)
 .debug_ranges  0x0000000000000000       0x18 c:/program files/microchip/xc32/v4.60/bin/bin/../../lib/gcc/pic32c/8.3.1/../../../../pic32c/lib/thumb/v7e-m+fp/hard\libg-musl.a(__io_init_needed.o)
 .debug_line    0x0000000000000000      0x12b c:/program files/microchip/xc32/v4.60/bin/bin/../../lib/gcc/pic32c/8.3.1/../../../../pic32c/lib/thumb/v7e-m+fp/hard\libg-musl.a(__io_init_needed.o)
 .debug_str     0x0000000000000000      0x2de c:/program files/microchip/xc32/v4.60/bin/bin/../../lib/gcc/pic32c/8.3.1/../../../../pic32c/lib/thumb/v7e-m+fp/hard\libg-musl.a(__io_init_needed.o)
 .comment       0x0000000000000000       0x2c c:/program files/microchip/xc32/v4.60/bin/bin/../../lib/gcc/pic32c/8.3.1/../../../../pic32c/lib/thumb/v7e-m+fp/hard\libg-musl.a(__io_init_needed.o)
 .note.GNU-stack
                0x0000000000000000        0x0 c:/program files/microchip/xc32/v4.60/bin/bin/../../lib/gcc/pic32c/8.3.1/../../../../pic32c/lib/thumb/v7e-m+fp/hard\libg-musl.a(__io_init_needed.o)
 .debug_frame   0x0000000000000000       0x30 c:/program files/microchip/xc32/v4.60/bin/bin/../../lib/gcc/pic32c/8.3.1/../../../../pic32c/lib/thumb/v7e-m+fp/hard\libg-musl.a(__io_init_needed.o)
 .ARM.attributes
                0x0000000000000000       0x36 c:/program files/microchip/xc32/v4.60/bin/bin/../../lib/gcc/pic32c/8.3.1/../../../../pic32c/lib/thumb/v7e-m+fp/hard\libg-musl.a(__io_init_needed.o)
 .text          0x0000000000000000        0x0 c:/program files/microchip/xc32/v4.60/bin/bin/../../lib/gcc/pic32c/8.3.1/../../../../pic32c/lib/thumb/v7e-m+fp/hard\libg-musl.a(__io_rw_needed.o)
 .data          0x0000000000000000        0x0 c:/program files/microchip/xc32/v4.60/bin/bin/../../lib/gcc/pic32c/8.3.1/../../../../pic32c/lib/thumb/v7e-m+fp/hard\libg-musl.a(__io_rw_needed.o)
 .bss           0x0000000000000000        0x0 c:/program files/microchip/xc32/v4.60/bin/bin/../../lib/gcc/pic32c/8.3.1/../../../../pic32c/lib/thumb/v7e-m+fp/hard\libg-musl.a(__io_rw_needed.o)
 .xc_stack_usage
                0x0000000000000000       0x1c c:/program files/microchip/xc32/v4.60/bin/bin/../../lib/gcc/pic32c/8.3.1/../../../../pic32c/lib/thumb/v7e-m+fp/hard\libg-musl.a(__io_rw_needed.o)
 .xc_stack_usage.hdr
                0x0000000000000000        0xe c:/program files/microchip/xc32/v4.60/bin/bin/../../lib/gcc/pic32c/8.3.1/../../../../pic32c/lib/thumb/v7e-m+fp/hard\libg-musl.a(__io_rw_needed.o)
 .debug_info    0x0000000000000000       0xfe c:/program files/microchip/xc32/v4.60/bin/bin/../../lib/gcc/pic32c/8.3.1/../../../../pic32c/lib/thumb/v7e-m+fp/hard\libg-musl.a(__io_rw_needed.o)
 .debug_abbrev  0x0000000000000000       0x75 c:/program files/microchip/xc32/v4.60/bin/bin/../../lib/gcc/pic32c/8.3.1/../../../../pic32c/lib/thumb/v7e-m+fp/hard\libg-musl.a(__io_rw_needed.o)
 .debug_loc     0x0000000000000000       0x2c c:/program files/microchip/xc32/v4.60/bin/bin/../../lib/gcc/pic32c/8.3.1/../../../../pic32c/lib/thumb/v7e-m+fp/hard\libg-musl.a(__io_rw_needed.o)
 .debug_aranges
                0x0000000000000000       0x20 c:/program files/microchip/xc32/v4.60/bin/bin/../../lib/gcc/pic32c/8.3.1/../../../../pic32c/lib/thumb/v7e-m+fp/hard\libg-musl.a(__io_rw_needed.o)
 .debug_ranges  0x0000000000000000       0x10 c:/program files/microchip/xc32/v4.60/bin/bin/../../lib/gcc/pic32c/8.3.1/../../../../pic32c/lib/thumb/v7e-m+fp/hard\libg-musl.a(__io_rw_needed.o)
 .debug_line    0x0000000000000000      0x130 c:/program files/microchip/xc32/v4.60/bin/bin/../../lib/gcc/pic32c/8.3.1/../../../../pic32c/lib/thumb/v7e-m+fp/hard\libg-musl.a(__io_rw_needed.o)
 .debug_str     0x0000000000000000      0x2ed c:/program files/microchip/xc32/v4.60/bin/bin/../../lib/gcc/pic32c/8.3.1/../../../../pic32c/lib/thumb/v7e-m+fp/hard\libg-musl.a(__io_rw_needed.o)
 .comment       0x0000000000000000       0x2c c:/program files/microchip/xc32/v4.60/bin/bin/../../lib/gcc/pic32c/8.3.1/../../../../pic32c/lib/thumb/v7e-m+fp/hard\libg-musl.a(__io_rw_needed.o)
 .note.GNU-stack
                0x0000000000000000        0x0 c:/program files/microchip/xc32/v4.60/bin/bin/../../lib/gcc/pic32c/8.3.1/../../../../pic32c/lib/thumb/v7e-m+fp/hard\libg-musl.a(__io_rw_needed.o)
 .debug_frame   0x0000000000000000       0x2c c:/program files/microchip/xc32/v4.60/bin/bin/../../lib/gcc/pic32c/8.3.1/../../../../pic32c/lib/thumb/v7e-m+fp/hard\libg-musl.a(__io_rw_needed.o)
 .ARM.attributes
                0x0000000000000000       0x36 c:/program files/microchip/xc32/v4.60/bin/bin/../../lib/gcc/pic32c/8.3.1/../../../../pic32c/lib/thumb/v7e-m+fp/hard\libg-musl.a(__io_rw_needed.o)
 .text          0x0000000000000000        0x0 c:/program files/microchip/xc32/v4.60/bin/bin/../../lib/gcc/pic32c/8.3.1/../../../../pic32c/lib/thumb/v7e-m+fp/hard\libg-musl.a(__pop_float.o)
 .data          0x0000000000000000        0x0 c:/program files/microchip/xc32/v4.60/bin/bin/../../lib/gcc/pic32c/8.3.1/../../../../pic32c/lib/thumb/v7e-m+fp/hard\libg-musl.a(__pop_float.o)
 .bss           0x0000000000000000        0x0 c:/program files/microchip/xc32/v4.60/bin/bin/../../lib/gcc/pic32c/8.3.1/../../../../pic32c/lib/thumb/v7e-m+fp/hard\libg-musl.a(__pop_float.o)
 .xc_stack_usage
                0x0000000000000000       0x19 c:/program files/microchip/xc32/v4.60/bin/bin/../../lib/gcc/pic32c/8.3.1/../../../../pic32c/lib/thumb/v7e-m+fp/hard\libg-musl.a(__pop_float.o)
 .xc_stack_usage.hdr
                0x0000000000000000        0xe c:/program files/microchip/xc32/v4.60/bin/bin/../../lib/gcc/pic32c/8.3.1/../../../../pic32c/lib/thumb/v7e-m+fp/hard\libg-musl.a(__pop_float.o)
 .text          0x0000000000000000        0x0 c:/program files/microchip/xc32/v4.60/bin/bin/../../lib/gcc/pic32c/8.3.1/../../../../pic32c/lib/thumb/v7e-m+fp/hard\libg-musl.a(__stdio_read.o)
 .data          0x0000000000000000        0x0 c:/program files/microchip/xc32/v4.60/bin/bin/../../lib/gcc/pic32c/8.3.1/../../../../pic32c/lib/thumb/v7e-m+fp/hard\libg-musl.a(__stdio_read.o)
 .bss           0x0000000000000000        0x0 c:/program files/microchip/xc32/v4.60/bin/bin/../../lib/gcc/pic32c/8.3.1/../../../../pic32c/lib/thumb/v7e-m+fp/hard\libg-musl.a(__stdio_read.o)
 .xc_stack_usage
                0x0000000000000000       0x1a c:/program files/microchip/xc32/v4.60/bin/bin/../../lib/gcc/pic32c/8.3.1/../../../../pic32c/lib/thumb/v7e-m+fp/hard\libg-musl.a(__stdio_read.o)
 .xc_stack_usage.hdr
                0x0000000000000000        0xe c:/program files/microchip/xc32/v4.60/bin/bin/../../lib/gcc/pic32c/8.3.1/../../../../pic32c/lib/thumb/v7e-m+fp/hard\libg-musl.a(__stdio_read.o)
 .text          0x0000000000000000        0x0 c:/program files/microchip/xc32/v4.60/bin/bin/../../lib/gcc/pic32c/8.3.1/../../../../pic32c/lib/thumb/v7e-m+fp/hard\libg-musl.a(__towrite_rw.o)
 .data          0x0000000000000000        0x0 c:/program files/microchip/xc32/v4.60/bin/bin/../../lib/gcc/pic32c/8.3.1/../../../../pic32c/lib/thumb/v7e-m+fp/hard\libg-musl.a(__towrite_rw.o)
 .bss           0x0000000000000000        0x0 c:/program files/microchip/xc32/v4.60/bin/bin/../../lib/gcc/pic32c/8.3.1/../../../../pic32c/lib/thumb/v7e-m+fp/hard\libg-musl.a(__towrite_rw.o)
 .xc_stack_usage
                0x0000000000000000       0x1a c:/program files/microchip/xc32/v4.60/bin/bin/../../lib/gcc/pic32c/8.3.1/../../../../pic32c/lib/thumb/v7e-m+fp/hard\libg-musl.a(__towrite_rw.o)
 .xc_stack_usage.hdr
                0x0000000000000000        0xe c:/program files/microchip/xc32/v4.60/bin/bin/../../lib/gcc/pic32c/8.3.1/../../../../pic32c/lib/thumb/v7e-m+fp/hard\libg-musl.a(__towrite_rw.o)
 .text          0x0000000000000000        0x0 c:/program files/microchip/xc32/v4.60/bin/bin/../../lib/gcc/pic32c/8.3.1/../../../../pic32c/lib/thumb/v7e-m+fp/hard\libg-musl.a(fwrite.o)
 .data          0x0000000000000000        0x0 c:/program files/microchip/xc32/v4.60/bin/bin/../../lib/gcc/pic32c/8.3.1/../../../../pic32c/lib/thumb/v7e-m+fp/hard\libg-musl.a(fwrite.o)
 .bss           0x0000000000000000        0x0 c:/program files/microchip/xc32/v4.60/bin/bin/../../lib/gcc/pic32c/8.3.1/../../../../pic32c/lib/thumb/v7e-m+fp/hard\libg-musl.a(fwrite.o)
 .xc_stack_usage
                0x0000000000000000       0x2e c:/program files/microchip/xc32/v4.60/bin/bin/../../lib/gcc/pic32c/8.3.1/../../../../pic32c/lib/thumb/v7e-m+fp/hard\libg-musl.a(fwrite.o)
 .text.__fwrite_min
                0x0000000000000000        0x6 c:/program files/microchip/xc32/v4.60/bin/bin/../../lib/gcc/pic32c/8.3.1/../../../../pic32c/lib/thumb/v7e-m+fp/hard\libg-musl.a(fwrite.o)
 .xc_stack_usage.hdr
                0x0000000000000000        0xe c:/program files/microchip/xc32/v4.60/bin/bin/../../lib/gcc/pic32c/8.3.1/../../../../pic32c/lib/thumb/v7e-m+fp/hard\libg-musl.a(fwrite.o)
 .text          0x0000000000000000        0x0 c:/program files/microchip/xc32/v4.60/bin/bin/../../lib/gcc/pic32c/8.3.1/../../../../pic32c/lib/thumb/v7e-m+fp/hard\libg-musl.a(putc.o)
 .data          0x0000000000000000        0x0 c:/program files/microchip/xc32/v4.60/bin/bin/../../lib/gcc/pic32c/8.3.1/../../../../pic32c/lib/thumb/v7e-m+fp/hard\libg-musl.a(putc.o)
 .bss           0x0000000000000000        0x0 c:/program files/microchip/xc32/v4.60/bin/bin/../../lib/gcc/pic32c/8.3.1/../../../../pic32c/lib/thumb/v7e-m+fp/hard\libg-musl.a(putc.o)
 .xc_stack_usage
                0x0000000000000000       0x4f c:/program files/microchip/xc32/v4.60/bin/bin/../../lib/gcc/pic32c/8.3.1/../../../../pic32c/lib/thumb/v7e-m+fp/hard\libg-musl.a(putc.o)
 .xc_stack_usage.hdr
                0x0000000000000000        0xe c:/program files/microchip/xc32/v4.60/bin/bin/../../lib/gcc/pic32c/8.3.1/../../../../pic32c/lib/thumb/v7e-m+fp/hard\libg-musl.a(putc.o)
 .text          0x0000000000000000        0x0 c:/program files/microchip/xc32/v4.60/bin/bin/../../lib/gcc/pic32c/8.3.1/../../../../pic32c/lib/thumb/v7e-m+fp/hard\libg-musl.a(setvbuf.o)
 .data          0x0000000000000000        0x0 c:/program files/microchip/xc32/v4.60/bin/bin/../../lib/gcc/pic32c/8.3.1/../../../../pic32c/lib/thumb/v7e-m+fp/hard\libg-musl.a(setvbuf.o)
 .bss           0x0000000000000000        0x0 c:/program files/microchip/xc32/v4.60/bin/bin/../../lib/gcc/pic32c/8.3.1/../../../../pic32c/lib/thumb/v7e-m+fp/hard\libg-musl.a(setvbuf.o)
 .xc_stack_usage
                0x0000000000000000       0x36 c:/program files/microchip/xc32/v4.60/bin/bin/../../lib/gcc/pic32c/8.3.1/../../../../pic32c/lib/thumb/v7e-m+fp/hard\libg-musl.a(setvbuf.o)
 .xc_stack_usage.hdr
                0x0000000000000000        0xe c:/program files/microchip/xc32/v4.60/bin/bin/../../lib/gcc/pic32c/8.3.1/../../../../pic32c/lib/thumb/v7e-m+fp/hard\libg-musl.a(setvbuf.o)
 .text          0x0000000000000000        0x0 c:/program files/microchip/xc32/v4.60/bin/bin/../../lib/gcc/pic32c/8.3.1/../../../../pic32c/lib/thumb/v7e-m+fp/hard\libg-musl.a(readv.o)
 .data          0x0000000000000000        0x0 c:/program files/microchip/xc32/v4.60/bin/bin/../../lib/gcc/pic32c/8.3.1/../../../../pic32c/lib/thumb/v7e-m+fp/hard\libg-musl.a(readv.o)
 .bss           0x0000000000000000        0x0 c:/program files/microchip/xc32/v4.60/bin/bin/../../lib/gcc/pic32c/8.3.1/../../../../pic32c/lib/thumb/v7e-m+fp/hard\libg-musl.a(readv.o)
 .xc_stack_usage
                0x0000000000000000       0x15 c:/program files/microchip/xc32/v4.60/bin/bin/../../lib/gcc/pic32c/8.3.1/../../../../pic32c/lib/thumb/v7e-m+fp/hard\libg-musl.a(readv.o)
 .xc_stack_usage.hdr
                0x0000000000000000        0xe c:/program files/microchip/xc32/v4.60/bin/bin/../../lib/gcc/pic32c/8.3.1/../../../../pic32c/lib/thumb/v7e-m+fp/hard\libg-musl.a(readv.o)
 .text          0x0000000000000000        0x0 c:/program files/microchip/xc32/v4.60/bin/bin/../../lib/gcc/pic32c/8.3.1/../../../../pic32c/lib/thumb/v7e-m+fp/hard\libg-musl.a(__fopen_rw.o)
 .data          0x0000000000000000        0x0 c:/program files/microchip/xc32/v4.60/bin/bin/../../lib/gcc/pic32c/8.3.1/../../../../pic32c/lib/thumb/v7e-m+fp/hard\libg-musl.a(__fopen_rw.o)
 .bss           0x0000000000000000        0x0 c:/program files/microchip/xc32/v4.60/bin/bin/../../lib/gcc/pic32c/8.3.1/../../../../pic32c/lib/thumb/v7e-m+fp/hard\libg-musl.a(__fopen_rw.o)
 .xc_stack_usage
                0x0000000000000000       0x18 c:/program files/microchip/xc32/v4.60/bin/bin/../../lib/gcc/pic32c/8.3.1/../../../../pic32c/lib/thumb/v7e-m+fp/hard\libg-musl.a(__fopen_rw.o)
 .text.__fopen_rw
                0x0000000000000000       0x4c c:/program files/microchip/xc32/v4.60/bin/bin/../../lib/gcc/pic32c/8.3.1/../../../../pic32c/lib/thumb/v7e-m+fp/hard\libg-musl.a(__fopen_rw.o)
 .xc_stack_usage.hdr
                0x0000000000000000        0xe c:/program files/microchip/xc32/v4.60/bin/bin/../../lib/gcc/pic32c/8.3.1/../../../../pic32c/lib/thumb/v7e-m+fp/hard\libg-musl.a(__fopen_rw.o)
 .debug_info    0x0000000000000000      0x3dc c:/program files/microchip/xc32/v4.60/bin/bin/../../lib/gcc/pic32c/8.3.1/../../../../pic32c/lib/thumb/v7e-m+fp/hard\libg-musl.a(__fopen_rw.o)
 .debug_abbrev  0x0000000000000000      0x12c c:/program files/microchip/xc32/v4.60/bin/bin/../../lib/gcc/pic32c/8.3.1/../../../../pic32c/lib/thumb/v7e-m+fp/hard\libg-musl.a(__fopen_rw.o)
 .debug_loc     0x0000000000000000       0x4f c:/program files/microchip/xc32/v4.60/bin/bin/../../lib/gcc/pic32c/8.3.1/../../../../pic32c/lib/thumb/v7e-m+fp/hard\libg-musl.a(__fopen_rw.o)
 .debug_aranges
                0x0000000000000000       0x20 c:/program files/microchip/xc32/v4.60/bin/bin/../../lib/gcc/pic32c/8.3.1/../../../../pic32c/lib/thumb/v7e-m+fp/hard\libg-musl.a(__fopen_rw.o)
 .debug_ranges  0x0000000000000000       0x10 c:/program files/microchip/xc32/v4.60/bin/bin/../../lib/gcc/pic32c/8.3.1/../../../../pic32c/lib/thumb/v7e-m+fp/hard\libg-musl.a(__fopen_rw.o)
 .debug_line    0x0000000000000000      0x285 c:/program files/microchip/xc32/v4.60/bin/bin/../../lib/gcc/pic32c/8.3.1/../../../../pic32c/lib/thumb/v7e-m+fp/hard\libg-musl.a(__fopen_rw.o)
 .debug_str     0x0000000000000000      0x35f c:/program files/microchip/xc32/v4.60/bin/bin/../../lib/gcc/pic32c/8.3.1/../../../../pic32c/lib/thumb/v7e-m+fp/hard\libg-musl.a(__fopen_rw.o)
 .comment       0x0000000000000000       0x2c c:/program files/microchip/xc32/v4.60/bin/bin/../../lib/gcc/pic32c/8.3.1/../../../../pic32c/lib/thumb/v7e-m+fp/hard\libg-musl.a(__fopen_rw.o)
 .note.GNU-stack
                0x0000000000000000        0x0 c:/program files/microchip/xc32/v4.60/bin/bin/../../lib/gcc/pic32c/8.3.1/../../../../pic32c/lib/thumb/v7e-m+fp/hard\libg-musl.a(__fopen_rw.o)
 .debug_frame   0x0000000000000000       0x28 c:/program files/microchip/xc32/v4.60/bin/bin/../../lib/gcc/pic32c/8.3.1/../../../../pic32c/lib/thumb/v7e-m+fp/hard\libg-musl.a(__fopen_rw.o)
 .ARM.attributes
                0x0000000000000000       0x36 c:/program files/microchip/xc32/v4.60/bin/bin/../../lib/gcc/pic32c/8.3.1/../../../../pic32c/lib/thumb/v7e-m+fp/hard\libg-musl.a(__fopen_rw.o)
 .text          0x0000000000000000        0x0 c:/program files/microchip/xc32/v4.60/bin/bin/../../lib/gcc/pic32c/8.3.1/../../../../pic32c/lib/thumb/v7e-m+fp/hard\libg-musl.a(__ftello_rw.o)
 .data          0x0000000000000000        0x0 c:/program files/microchip/xc32/v4.60/bin/bin/../../lib/gcc/pic32c/8.3.1/../../../../pic32c/lib/thumb/v7e-m+fp/hard\libg-musl.a(__ftello_rw.o)
 .bss           0x0000000000000000        0x0 c:/program files/microchip/xc32/v4.60/bin/bin/../../lib/gcc/pic32c/8.3.1/../../../../pic32c/lib/thumb/v7e-m+fp/hard\libg-musl.a(__ftello_rw.o)
 .xc_stack_usage
                0x0000000000000000       0x1d c:/program files/microchip/xc32/v4.60/bin/bin/../../lib/gcc/pic32c/8.3.1/../../../../pic32c/lib/thumb/v7e-m+fp/hard\libg-musl.a(__ftello_rw.o)
 .text.__ftello_adj_rw
                0x0000000000000000       0x2c c:/program files/microchip/xc32/v4.60/bin/bin/../../lib/gcc/pic32c/8.3.1/../../../../pic32c/lib/thumb/v7e-m+fp/hard\libg-musl.a(__ftello_rw.o)
 .xc_stack_usage.hdr
                0x0000000000000000        0xe c:/program files/microchip/xc32/v4.60/bin/bin/../../lib/gcc/pic32c/8.3.1/../../../../pic32c/lib/thumb/v7e-m+fp/hard\libg-musl.a(__ftello_rw.o)
 .debug_info    0x0000000000000000      0x34a c:/program files/microchip/xc32/v4.60/bin/bin/../../lib/gcc/pic32c/8.3.1/../../../../pic32c/lib/thumb/v7e-m+fp/hard\libg-musl.a(__ftello_rw.o)
 .debug_abbrev  0x0000000000000000      0x10b c:/program files/microchip/xc32/v4.60/bin/bin/../../lib/gcc/pic32c/8.3.1/../../../../pic32c/lib/thumb/v7e-m+fp/hard\libg-musl.a(__ftello_rw.o)
 .debug_loc     0x0000000000000000       0x45 c:/program files/microchip/xc32/v4.60/bin/bin/../../lib/gcc/pic32c/8.3.1/../../../../pic32c/lib/thumb/v7e-m+fp/hard\libg-musl.a(__ftello_rw.o)
 .debug_aranges
                0x0000000000000000       0x20 c:/program files/microchip/xc32/v4.60/bin/bin/../../lib/gcc/pic32c/8.3.1/../../../../pic32c/lib/thumb/v7e-m+fp/hard\libg-musl.a(__ftello_rw.o)
 .debug_ranges  0x0000000000000000       0x10 c:/program files/microchip/xc32/v4.60/bin/bin/../../lib/gcc/pic32c/8.3.1/../../../../pic32c/lib/thumb/v7e-m+fp/hard\libg-musl.a(__ftello_rw.o)
 .debug_line    0x0000000000000000      0x1d4 c:/program files/microchip/xc32/v4.60/bin/bin/../../lib/gcc/pic32c/8.3.1/../../../../pic32c/lib/thumb/v7e-m+fp/hard\libg-musl.a(__ftello_rw.o)
 .debug_str     0x0000000000000000      0x349 c:/program files/microchip/xc32/v4.60/bin/bin/../../lib/gcc/pic32c/8.3.1/../../../../pic32c/lib/thumb/v7e-m+fp/hard\libg-musl.a(__ftello_rw.o)
 .comment       0x0000000000000000       0x2c c:/program files/microchip/xc32/v4.60/bin/bin/../../lib/gcc/pic32c/8.3.1/../../../../pic32c/lib/thumb/v7e-m+fp/hard\libg-musl.a(__ftello_rw.o)
 .note.GNU-stack
                0x0000000000000000        0x0 c:/program files/microchip/xc32/v4.60/bin/bin/../../lib/gcc/pic32c/8.3.1/../../../../pic32c/lib/thumb/v7e-m+fp/hard\libg-musl.a(__ftello_rw.o)
 .debug_frame   0x0000000000000000       0x2c c:/program files/microchip/xc32/v4.60/bin/bin/../../lib/gcc/pic32c/8.3.1/../../../../pic32c/lib/thumb/v7e-m+fp/hard\libg-musl.a(__ftello_rw.o)
 .ARM.attributes
                0x0000000000000000       0x36 c:/program files/microchip/xc32/v4.60/bin/bin/../../lib/gcc/pic32c/8.3.1/../../../../pic32c/lib/thumb/v7e-m+fp/hard\libg-musl.a(__ftello_rw.o)
 .text          0x0000000000000000        0x0 c:/program files/microchip/xc32/v4.60/bin/bin/../../lib/gcc/pic32c/8.3.1/../../../../pic32c/lib/thumb/v7e-m+fp/hard\libg-musl.a(__init_stdio.o)
 .data          0x0000000000000000        0x0 c:/program files/microchip/xc32/v4.60/bin/bin/../../lib/gcc/pic32c/8.3.1/../../../../pic32c/lib/thumb/v7e-m+fp/hard\libg-musl.a(__init_stdio.o)
 .bss           0x0000000000000000        0x0 c:/program files/microchip/xc32/v4.60/bin/bin/../../lib/gcc/pic32c/8.3.1/../../../../pic32c/lib/thumb/v7e-m+fp/hard\libg-musl.a(__init_stdio.o)
 .xc_stack_usage
                0x0000000000000000       0x2f c:/program files/microchip/xc32/v4.60/bin/bin/../../lib/gcc/pic32c/8.3.1/../../../../pic32c/lib/thumb/v7e-m+fp/hard\libg-musl.a(__init_stdio.o)
 .xc_stack_usage.hdr
                0x0000000000000000        0xe c:/program files/microchip/xc32/v4.60/bin/bin/../../lib/gcc/pic32c/8.3.1/../../../../pic32c/lib/thumb/v7e-m+fp/hard\libg-musl.a(__init_stdio.o)
 .text          0x0000000000000000        0x0 c:/program files/microchip/xc32/v4.60/bin/bin/../../lib/gcc/pic32c/8.3.1/../../../../pic32c/lib/thumb/v7e-m+fp/hard\libg-musl.a(__io_buf_needed.o)
 .data          0x0000000000000000        0x0 c:/program files/microchip/xc32/v4.60/bin/bin/../../lib/gcc/pic32c/8.3.1/../../../../pic32c/lib/thumb/v7e-m+fp/hard\libg-musl.a(__io_buf_needed.o)
 .bss           0x0000000000000000        0x0 c:/program files/microchip/xc32/v4.60/bin/bin/../../lib/gcc/pic32c/8.3.1/../../../../pic32c/lib/thumb/v7e-m+fp/hard\libg-musl.a(__io_buf_needed.o)
 .xc_stack_usage
                0x0000000000000000       0x1d c:/program files/microchip/xc32/v4.60/bin/bin/../../lib/gcc/pic32c/8.3.1/../../../../pic32c/lib/thumb/v7e-m+fp/hard\libg-musl.a(__io_buf_needed.o)
 .xc_stack_usage.hdr
                0x0000000000000000        0xe c:/program files/microchip/xc32/v4.60/bin/bin/../../lib/gcc/pic32c/8.3.1/../../../../pic32c/lib/thumb/v7e-m+fp/hard\libg-musl.a(__io_buf_needed.o)
 .debug_info    0x0000000000000000      0x143 c:/program files/microchip/xc32/v4.60/bin/bin/../../lib/gcc/pic32c/8.3.1/../../../../pic32c/lib/thumb/v7e-m+fp/hard\libg-musl.a(__io_buf_needed.o)
 .debug_abbrev  0x0000000000000000       0x75 c:/program files/microchip/xc32/v4.60/bin/bin/../../lib/gcc/pic32c/8.3.1/../../../../pic32c/lib/thumb/v7e-m+fp/hard\libg-musl.a(__io_buf_needed.o)
 .debug_loc     0x0000000000000000       0x2c c:/program files/microchip/xc32/v4.60/bin/bin/../../lib/gcc/pic32c/8.3.1/../../../../pic32c/lib/thumb/v7e-m+fp/hard\libg-musl.a(__io_buf_needed.o)
 .debug_aranges
                0x0000000000000000       0x20 c:/program files/microchip/xc32/v4.60/bin/bin/../../lib/gcc/pic32c/8.3.1/../../../../pic32c/lib/thumb/v7e-m+fp/hard\libg-musl.a(__io_buf_needed.o)
 .debug_ranges  0x0000000000000000       0x10 c:/program files/microchip/xc32/v4.60/bin/bin/../../lib/gcc/pic32c/8.3.1/../../../../pic32c/lib/thumb/v7e-m+fp/hard\libg-musl.a(__io_buf_needed.o)
 .debug_line    0x0000000000000000      0x134 c:/program files/microchip/xc32/v4.60/bin/bin/../../lib/gcc/pic32c/8.3.1/../../../../pic32c/lib/thumb/v7e-m+fp/hard\libg-musl.a(__io_buf_needed.o)
 .debug_str     0x0000000000000000      0x319 c:/program files/microchip/xc32/v4.60/bin/bin/../../lib/gcc/pic32c/8.3.1/../../../../pic32c/lib/thumb/v7e-m+fp/hard\libg-musl.a(__io_buf_needed.o)
 .comment       0x0000000000000000       0x2c c:/program files/microchip/xc32/v4.60/bin/bin/../../lib/gcc/pic32c/8.3.1/../../../../pic32c/lib/thumb/v7e-m+fp/hard\libg-musl.a(__io_buf_needed.o)
 .note.GNU-stack
                0x0000000000000000        0x0 c:/program files/microchip/xc32/v4.60/bin/bin/../../lib/gcc/pic32c/8.3.1/../../../../pic32c/lib/thumb/v7e-m+fp/hard\libg-musl.a(__io_buf_needed.o)
 .debug_frame   0x0000000000000000       0x2c c:/program files/microchip/xc32/v4.60/bin/bin/../../lib/gcc/pic32c/8.3.1/../../../../pic32c/lib/thumb/v7e-m+fp/hard\libg-musl.a(__io_buf_needed.o)
 .ARM.attributes
                0x0000000000000000       0x36 c:/program files/microchip/xc32/v4.60/bin/bin/../../lib/gcc/pic32c/8.3.1/../../../../pic32c/lib/thumb/v7e-m+fp/hard\libg-musl.a(__io_buf_needed.o)
 .text          0x0000000000000000        0x0 c:/program files/microchip/xc32/v4.60/bin/bin/../../lib/gcc/pic32c/8.3.1/../../../../pic32c/lib/thumb/v7e-m+fp/hard\libg-musl.a(__io_file_needed.o)
 .data          0x0000000000000000        0x0 c:/program files/microchip/xc32/v4.60/bin/bin/../../lib/gcc/pic32c/8.3.1/../../../../pic32c/lib/thumb/v7e-m+fp/hard\libg-musl.a(__io_file_needed.o)
 .bss           0x0000000000000000        0x0 c:/program files/microchip/xc32/v4.60/bin/bin/../../lib/gcc/pic32c/8.3.1/../../../../pic32c/lib/thumb/v7e-m+fp/hard\libg-musl.a(__io_file_needed.o)
 .xc_stack_usage
                0x0000000000000000       0x1e c:/program files/microchip/xc32/v4.60/bin/bin/../../lib/gcc/pic32c/8.3.1/../../../../pic32c/lib/thumb/v7e-m+fp/hard\libg-musl.a(__io_file_needed.o)
 .xc_stack_usage.hdr
                0x0000000000000000        0xe c:/program files/microchip/xc32/v4.60/bin/bin/../../lib/gcc/pic32c/8.3.1/../../../../pic32c/lib/thumb/v7e-m+fp/hard\libg-musl.a(__io_file_needed.o)
 .debug_info    0x0000000000000000       0xb8 c:/program files/microchip/xc32/v4.60/bin/bin/../../lib/gcc/pic32c/8.3.1/../../../../pic32c/lib/thumb/v7e-m+fp/hard\libg-musl.a(__io_file_needed.o)
 .debug_abbrev  0x0000000000000000       0x6a c:/program files/microchip/xc32/v4.60/bin/bin/../../lib/gcc/pic32c/8.3.1/../../../../pic32c/lib/thumb/v7e-m+fp/hard\libg-musl.a(__io_file_needed.o)
 .debug_aranges
                0x0000000000000000       0x20 c:/program files/microchip/xc32/v4.60/bin/bin/../../lib/gcc/pic32c/8.3.1/../../../../pic32c/lib/thumb/v7e-m+fp/hard\libg-musl.a(__io_file_needed.o)
 .debug_ranges  0x0000000000000000       0x10 c:/program files/microchip/xc32/v4.60/bin/bin/../../lib/gcc/pic32c/8.3.1/../../../../pic32c/lib/thumb/v7e-m+fp/hard\libg-musl.a(__io_file_needed.o)
 .debug_line    0x0000000000000000       0xac c:/program files/microchip/xc32/v4.60/bin/bin/../../lib/gcc/pic32c/8.3.1/../../../../pic32c/lib/thumb/v7e-m+fp/hard\libg-musl.a(__io_file_needed.o)
 .debug_str     0x0000000000000000      0x2b1 c:/program files/microchip/xc32/v4.60/bin/bin/../../lib/gcc/pic32c/8.3.1/../../../../pic32c/lib/thumb/v7e-m+fp/hard\libg-musl.a(__io_file_needed.o)
 .comment       0x0000000000000000       0x2c c:/program files/microchip/xc32/v4.60/bin/bin/../../lib/gcc/pic32c/8.3.1/../../../../pic32c/lib/thumb/v7e-m+fp/hard\libg-musl.a(__io_file_needed.o)
 .note.GNU-stack
                0x0000000000000000        0x0 c:/program files/microchip/xc32/v4.60/bin/bin/../../lib/gcc/pic32c/8.3.1/../../../../pic32c/lib/thumb/v7e-m+fp/hard\libg-musl.a(__io_file_needed.o)
 .debug_frame   0x0000000000000000       0x20 c:/program files/microchip/xc32/v4.60/bin/bin/../../lib/gcc/pic32c/8.3.1/../../../../pic32c/lib/thumb/v7e-m+fp/hard\libg-musl.a(__io_file_needed.o)
 .ARM.attributes
                0x0000000000000000       0x36 c:/program files/microchip/xc32/v4.60/bin/bin/../../lib/gcc/pic32c/8.3.1/../../../../pic32c/lib/thumb/v7e-m+fp/hard\libg-musl.a(__io_file_needed.o)
 .text          0x0000000000000000        0x0 c:/program files/microchip/xc32/v4.60/bin/bin/../../lib/gcc/pic32c/8.3.1/../../../../pic32c/lib/thumb/v7e-m+fp/hard\libg-musl.a(__io_std_needed.o)
 .data          0x0000000000000000        0x0 c:/program files/microchip/xc32/v4.60/bin/bin/../../lib/gcc/pic32c/8.3.1/../../../../pic32c/lib/thumb/v7e-m+fp/hard\libg-musl.a(__io_std_needed.o)
 .bss           0x0000000000000000        0x0 c:/program files/microchip/xc32/v4.60/bin/bin/../../lib/gcc/pic32c/8.3.1/../../../../pic32c/lib/thumb/v7e-m+fp/hard\libg-musl.a(__io_std_needed.o)
 .xc_stack_usage
                0x0000000000000000       0x1d c:/program files/microchip/xc32/v4.60/bin/bin/../../lib/gcc/pic32c/8.3.1/../../../../pic32c/lib/thumb/v7e-m+fp/hard\libg-musl.a(__io_std_needed.o)
 .xc_stack_usage.hdr
                0x0000000000000000        0xe c:/program files/microchip/xc32/v4.60/bin/bin/../../lib/gcc/pic32c/8.3.1/../../../../pic32c/lib/thumb/v7e-m+fp/hard\libg-musl.a(__io_std_needed.o)
 .debug_info    0x0000000000000000      0x12c c:/program files/microchip/xc32/v4.60/bin/bin/../../lib/gcc/pic32c/8.3.1/../../../../pic32c/lib/thumb/v7e-m+fp/hard\libg-musl.a(__io_std_needed.o)
 .debug_abbrev  0x0000000000000000       0x75 c:/program files/microchip/xc32/v4.60/bin/bin/../../lib/gcc/pic32c/8.3.1/../../../../pic32c/lib/thumb/v7e-m+fp/hard\libg-musl.a(__io_std_needed.o)
 .debug_loc     0x0000000000000000       0x2c c:/program files/microchip/xc32/v4.60/bin/bin/../../lib/gcc/pic32c/8.3.1/../../../../pic32c/lib/thumb/v7e-m+fp/hard\libg-musl.a(__io_std_needed.o)
 .debug_aranges
                0x0000000000000000       0x20 c:/program files/microchip/xc32/v4.60/bin/bin/../../lib/gcc/pic32c/8.3.1/../../../../pic32c/lib/thumb/v7e-m+fp/hard\libg-musl.a(__io_std_needed.o)
 .debug_ranges  0x0000000000000000       0x10 c:/program files/microchip/xc32/v4.60/bin/bin/../../lib/gcc/pic32c/8.3.1/../../../../pic32c/lib/thumb/v7e-m+fp/hard\libg-musl.a(__io_std_needed.o)
 .debug_line    0x0000000000000000      0x133 c:/program files/microchip/xc32/v4.60/bin/bin/../../lib/gcc/pic32c/8.3.1/../../../../pic32c/lib/thumb/v7e-m+fp/hard\libg-musl.a(__io_std_needed.o)
 .debug_str     0x0000000000000000      0x30d c:/program files/microchip/xc32/v4.60/bin/bin/../../lib/gcc/pic32c/8.3.1/../../../../pic32c/lib/thumb/v7e-m+fp/hard\libg-musl.a(__io_std_needed.o)
 .comment       0x0000000000000000       0x2c c:/program files/microchip/xc32/v4.60/bin/bin/../../lib/gcc/pic32c/8.3.1/../../../../pic32c/lib/thumb/v7e-m+fp/hard\libg-musl.a(__io_std_needed.o)
 .note.GNU-stack
                0x0000000000000000        0x0 c:/program files/microchip/xc32/v4.60/bin/bin/../../lib/gcc/pic32c/8.3.1/../../../../pic32c/lib/thumb/v7e-m+fp/hard\libg-musl.a(__io_std_needed.o)
 .debug_frame   0x0000000000000000       0x2c c:/program files/microchip/xc32/v4.60/bin/bin/../../lib/gcc/pic32c/8.3.1/../../../../pic32c/lib/thumb/v7e-m+fp/hard\libg-musl.a(__io_std_needed.o)
 .ARM.attributes
                0x0000000000000000       0x36 c:/program files/microchip/xc32/v4.60/bin/bin/../../lib/gcc/pic32c/8.3.1/../../../../pic32c/lib/thumb/v7e-m+fp/hard\libg-musl.a(__io_std_needed.o)
 .text          0x0000000000000000        0x0 c:/program files/microchip/xc32/v4.60/bin/bin/../../lib/gcc/pic32c/8.3.1/../../../../pic32c/lib/thumb/v7e-m+fp/hard\libg-musl.a(__out.o)
 .data          0x0000000000000000        0x0 c:/program files/microchip/xc32/v4.60/bin/bin/../../lib/gcc/pic32c/8.3.1/../../../../pic32c/lib/thumb/v7e-m+fp/hard\libg-musl.a(__out.o)
 .bss           0x0000000000000000        0x0 c:/program files/microchip/xc32/v4.60/bin/bin/../../lib/gcc/pic32c/8.3.1/../../../../pic32c/lib/thumb/v7e-m+fp/hard\libg-musl.a(__out.o)
 .xc_stack_usage
                0x0000000000000000       0x2d c:/program files/microchip/xc32/v4.60/bin/bin/../../lib/gcc/pic32c/8.3.1/../../../../pic32c/lib/thumb/v7e-m+fp/hard\libg-musl.a(__out.o)
 .xc_stack_usage.hdr
                0x0000000000000000        0xe c:/program files/microchip/xc32/v4.60/bin/bin/../../lib/gcc/pic32c/8.3.1/../../../../pic32c/lib/thumb/v7e-m+fp/hard\libg-musl.a(__out.o)
 .text          0x0000000000000000        0x0 c:/program files/microchip/xc32/v4.60/bin/bin/../../lib/gcc/pic32c/8.3.1/../../../../pic32c/lib/thumb/v7e-m+fp/hard\libg-musl.a(__putc.o)
 .data          0x0000000000000000        0x0 c:/program files/microchip/xc32/v4.60/bin/bin/../../lib/gcc/pic32c/8.3.1/../../../../pic32c/lib/thumb/v7e-m+fp/hard\libg-musl.a(__putc.o)
 .bss           0x0000000000000000        0x0 c:/program files/microchip/xc32/v4.60/bin/bin/../../lib/gcc/pic32c/8.3.1/../../../../pic32c/lib/thumb/v7e-m+fp/hard\libg-musl.a(__putc.o)
 .xc_stack_usage
                0x0000000000000000       0x14 c:/program files/microchip/xc32/v4.60/bin/bin/../../lib/gcc/pic32c/8.3.1/../../../../pic32c/lib/thumb/v7e-m+fp/hard\libg-musl.a(__putc.o)
 .xc_stack_usage.hdr
                0x0000000000000000        0xe c:/program files/microchip/xc32/v4.60/bin/bin/../../lib/gcc/pic32c/8.3.1/../../../../pic32c/lib/thumb/v7e-m+fp/hard\libg-musl.a(__putc.o)
 .text          0x0000000000000000        0x0 c:/program files/microchip/xc32/v4.60/bin/bin/../../lib/gcc/pic32c/8.3.1/../../../../pic32c/lib/thumb/v7e-m+fp/hard\libg-musl.a(__stderr.o)
 .data          0x0000000000000000       0x60 c:/program files/microchip/xc32/v4.60/bin/bin/../../lib/gcc/pic32c/8.3.1/../../../../pic32c/lib/thumb/v7e-m+fp/hard\libg-musl.a(__stderr.o)
 .bss           0x0000000000000000        0x0 c:/program files/microchip/xc32/v4.60/bin/bin/../../lib/gcc/pic32c/8.3.1/../../../../pic32c/lib/thumb/v7e-m+fp/hard\libg-musl.a(__stderr.o)
 .xc_stack_usage
                0x0000000000000000       0x50 c:/program files/microchip/xc32/v4.60/bin/bin/../../lib/gcc/pic32c/8.3.1/../../../../pic32c/lib/thumb/v7e-m+fp/hard\libg-musl.a(__stderr.o)
 .text.__get_stderr
                0x0000000000000000        0x8 c:/program files/microchip/xc32/v4.60/bin/bin/../../lib/gcc/pic32c/8.3.1/../../../../pic32c/lib/thumb/v7e-m+fp/hard\libg-musl.a(__stderr.o)
 .xc_stack_usage.hdr
                0x0000000000000000        0xe c:/program files/microchip/xc32/v4.60/bin/bin/../../lib/gcc/pic32c/8.3.1/../../../../pic32c/lib/thumb/v7e-m+fp/hard\libg-musl.a(__stderr.o)
 .text          0x0000000000000000        0x0 c:/program files/microchip/xc32/v4.60/bin/bin/../../lib/gcc/pic32c/8.3.1/../../../../pic32c/lib/thumb/v7e-m+fp/hard\libg-musl.a(__stdio_close.o)
 .data          0x0000000000000000        0x0 c:/program files/microchip/xc32/v4.60/bin/bin/../../lib/gcc/pic32c/8.3.1/../../../../pic32c/lib/thumb/v7e-m+fp/hard\libg-musl.a(__stdio_close.o)
 .bss           0x0000000000000000        0x0 c:/program files/microchip/xc32/v4.60/bin/bin/../../lib/gcc/pic32c/8.3.1/../../../../pic32c/lib/thumb/v7e-m+fp/hard\libg-musl.a(__stdio_close.o)
 .xc_stack_usage
                0x0000000000000000       0x39 c:/program files/microchip/xc32/v4.60/bin/bin/../../lib/gcc/pic32c/8.3.1/../../../../pic32c/lib/thumb/v7e-m+fp/hard\libg-musl.a(__stdio_close.o)
 .text.__stdio_close
                0x0000000000000000       0x44 c:/program files/microchip/xc32/v4.60/bin/bin/../../lib/gcc/pic32c/8.3.1/../../../../pic32c/lib/thumb/v7e-m+fp/hard\libg-musl.a(__stdio_close.o)
 .xc_stack_usage.hdr
                0x0000000000000000        0xe c:/program files/microchip/xc32/v4.60/bin/bin/../../lib/gcc/pic32c/8.3.1/../../../../pic32c/lib/thumb/v7e-m+fp/hard\libg-musl.a(__stdio_close.o)
 .text          0x0000000000000000        0x0 c:/program files/microchip/xc32/v4.60/bin/bin/../../lib/gcc/pic32c/8.3.1/../../../../pic32c/lib/thumb/v7e-m+fp/hard\libg-musl.a(__stdio_exit.o)
 .data          0x0000000000000000        0x0 c:/program files/microchip/xc32/v4.60/bin/bin/../../lib/gcc/pic32c/8.3.1/../../../../pic32c/lib/thumb/v7e-m+fp/hard\libg-musl.a(__stdio_exit.o)
 .bss           0x0000000000000000        0x4 c:/program files/microchip/xc32/v4.60/bin/bin/../../lib/gcc/pic32c/8.3.1/../../../../pic32c/lib/thumb/v7e-m+fp/hard\libg-musl.a(__stdio_exit.o)
 .xc_stack_usage
                0x0000000000000000       0x45 c:/program files/microchip/xc32/v4.60/bin/bin/../../lib/gcc/pic32c/8.3.1/../../../../pic32c/lib/thumb/v7e-m+fp/hard\libg-musl.a(__stdio_exit.o)
 .text.__dummy  0x0000000000000000        0x2 c:/program files/microchip/xc32/v4.60/bin/bin/../../lib/gcc/pic32c/8.3.1/../../../../pic32c/lib/thumb/v7e-m+fp/hard\libg-musl.a(__stdio_exit.o)
 .text.__dummy1
                0x0000000000000000        0x4 c:/program files/microchip/xc32/v4.60/bin/bin/../../lib/gcc/pic32c/8.3.1/../../../../pic32c/lib/thumb/v7e-m+fp/hard\libg-musl.a(__stdio_exit.o)
 .text.__stdio_exit
                0x0000000000000000       0x34 c:/program files/microchip/xc32/v4.60/bin/bin/../../lib/gcc/pic32c/8.3.1/../../../../pic32c/lib/thumb/v7e-m+fp/hard\libg-musl.a(__stdio_exit.o)
 .xc_stack_usage.hdr
                0x0000000000000000        0xe c:/program files/microchip/xc32/v4.60/bin/bin/../../lib/gcc/pic32c/8.3.1/../../../../pic32c/lib/thumb/v7e-m+fp/hard\libg-musl.a(__stdio_exit.o)
 .debug_info    0x0000000000000000      0x2dd c:/program files/microchip/xc32/v4.60/bin/bin/../../lib/gcc/pic32c/8.3.1/../../../../pic32c/lib/thumb/v7e-m+fp/hard\libg-musl.a(__stdio_exit.o)
 .debug_abbrev  0x0000000000000000      0x173 c:/program files/microchip/xc32/v4.60/bin/bin/../../lib/gcc/pic32c/8.3.1/../../../../pic32c/lib/thumb/v7e-m+fp/hard\libg-musl.a(__stdio_exit.o)
 .debug_loc     0x0000000000000000       0x45 c:/program files/microchip/xc32/v4.60/bin/bin/../../lib/gcc/pic32c/8.3.1/../../../../pic32c/lib/thumb/v7e-m+fp/hard\libg-musl.a(__stdio_exit.o)
 .debug_aranges
                0x0000000000000000       0x30 c:/program files/microchip/xc32/v4.60/bin/bin/../../lib/gcc/pic32c/8.3.1/../../../../pic32c/lib/thumb/v7e-m+fp/hard\libg-musl.a(__stdio_exit.o)
 .debug_ranges  0x0000000000000000       0x20 c:/program files/microchip/xc32/v4.60/bin/bin/../../lib/gcc/pic32c/8.3.1/../../../../pic32c/lib/thumb/v7e-m+fp/hard\libg-musl.a(__stdio_exit.o)
 .debug_line    0x0000000000000000      0x178 c:/program files/microchip/xc32/v4.60/bin/bin/../../lib/gcc/pic32c/8.3.1/../../../../pic32c/lib/thumb/v7e-m+fp/hard\libg-musl.a(__stdio_exit.o)
 .debug_str     0x0000000000000000      0x336 c:/program files/microchip/xc32/v4.60/bin/bin/../../lib/gcc/pic32c/8.3.1/../../../../pic32c/lib/thumb/v7e-m+fp/hard\libg-musl.a(__stdio_exit.o)
 .comment       0x0000000000000000       0x2c c:/program files/microchip/xc32/v4.60/bin/bin/../../lib/gcc/pic32c/8.3.1/../../../../pic32c/lib/thumb/v7e-m+fp/hard\libg-musl.a(__stdio_exit.o)
 .note.GNU-stack
                0x0000000000000000        0x0 c:/program files/microchip/xc32/v4.60/bin/bin/../../lib/gcc/pic32c/8.3.1/../../../../pic32c/lib/thumb/v7e-m+fp/hard\libg-musl.a(__stdio_exit.o)
 .debug_frame   0x0000000000000000       0x48 c:/program files/microchip/xc32/v4.60/bin/bin/../../lib/gcc/pic32c/8.3.1/../../../../pic32c/lib/thumb/v7e-m+fp/hard\libg-musl.a(__stdio_exit.o)
 .ARM.attributes
                0x0000000000000000       0x36 c:/program files/microchip/xc32/v4.60/bin/bin/../../lib/gcc/pic32c/8.3.1/../../../../pic32c/lib/thumb/v7e-m+fp/hard\libg-musl.a(__stdio_exit.o)
 .text          0x0000000000000000        0x0 c:/program files/microchip/xc32/v4.60/bin/bin/../../lib/gcc/pic32c/8.3.1/../../../../pic32c/lib/thumb/v7e-m+fp/hard\libg-musl.a(__stdio_write.o)
 .data          0x0000000000000000        0x0 c:/program files/microchip/xc32/v4.60/bin/bin/../../lib/gcc/pic32c/8.3.1/../../../../pic32c/lib/thumb/v7e-m+fp/hard\libg-musl.a(__stdio_write.o)
 .bss           0x0000000000000000        0x0 c:/program files/microchip/xc32/v4.60/bin/bin/../../lib/gcc/pic32c/8.3.1/../../../../pic32c/lib/thumb/v7e-m+fp/hard\libg-musl.a(__stdio_write.o)
 .xc_stack_usage
                0x0000000000000000       0x42 c:/program files/microchip/xc32/v4.60/bin/bin/../../lib/gcc/pic32c/8.3.1/../../../../pic32c/lib/thumb/v7e-m+fp/hard\libg-musl.a(__stdio_write.o)
 .xc_stack_usage.hdr
                0x0000000000000000        0xe c:/program files/microchip/xc32/v4.60/bin/bin/../../lib/gcc/pic32c/8.3.1/../../../../pic32c/lib/thumb/v7e-m+fp/hard\libg-musl.a(__stdio_write.o)
 .text          0x0000000000000000        0x0 c:/program files/microchip/xc32/v4.60/bin/bin/../../lib/gcc/pic32c/8.3.1/../../../../pic32c/lib/thumb/v7e-m+fp/hard\libg-musl.a(__stdout.o)
 .bss           0x0000000000000000        0x0 c:/program files/microchip/xc32/v4.60/bin/bin/../../lib/gcc/pic32c/8.3.1/../../../../pic32c/lib/thumb/v7e-m+fp/hard\libg-musl.a(__stdout.o)
 .xc_stack_usage
                0x0000000000000000       0x50 c:/program files/microchip/xc32/v4.60/bin/bin/../../lib/gcc/pic32c/8.3.1/../../../../pic32c/lib/thumb/v7e-m+fp/hard\libg-musl.a(__stdout.o)
 .text.__dummy  0x0000000000000000        0x2 c:/program files/microchip/xc32/v4.60/bin/bin/../../lib/gcc/pic32c/8.3.1/../../../../pic32c/lib/thumb/v7e-m+fp/hard\libg-musl.a(__stdout.o)
 .xc_stack_usage.hdr
                0x0000000000000000        0xe c:/program files/microchip/xc32/v4.60/bin/bin/../../lib/gcc/pic32c/8.3.1/../../../../pic32c/lib/thumb/v7e-m+fp/hard\libg-musl.a(__stdout.o)
 .text          0x0000000000000000        0x0 c:/program files/microchip/xc32/v4.60/bin/bin/../../lib/gcc/pic32c/8.3.1/../../../../pic32c/lib/thumb/v7e-m+fp/hard\libg-musl.a(__towrite.o)
 .data          0x0000000000000000        0x0 c:/program files/microchip/xc32/v4.60/bin/bin/../../lib/gcc/pic32c/8.3.1/../../../../pic32c/lib/thumb/v7e-m+fp/hard\libg-musl.a(__towrite.o)
 .bss           0x0000000000000000        0x0 c:/program files/microchip/xc32/v4.60/bin/bin/../../lib/gcc/pic32c/8.3.1/../../../../pic32c/lib/thumb/v7e-m+fp/hard\libg-musl.a(__towrite.o)
 .xc_stack_usage
                0x0000000000000000       0x2c c:/program files/microchip/xc32/v4.60/bin/bin/../../lib/gcc/pic32c/8.3.1/../../../../pic32c/lib/thumb/v7e-m+fp/hard\libg-musl.a(__towrite.o)
 .text.__dummy  0x0000000000000000        0x4 c:/program files/microchip/xc32/v4.60/bin/bin/../../lib/gcc/pic32c/8.3.1/../../../../pic32c/lib/thumb/v7e-m+fp/hard\libg-musl.a(__towrite.o)
 .xc_stack_usage.hdr
                0x0000000000000000        0xe c:/program files/microchip/xc32/v4.60/bin/bin/../../lib/gcc/pic32c/8.3.1/../../../../pic32c/lib/thumb/v7e-m+fp/hard\libg-musl.a(__towrite.o)
 .text          0x0000000000000000        0x0 c:/program files/microchip/xc32/v4.60/bin/bin/../../lib/gcc/pic32c/8.3.1/../../../../pic32c/lib/thumb/v7e-m+fp/hard\libg-musl.a(writev.o)
 .data          0x0000000000000000        0x0 c:/program files/microchip/xc32/v4.60/bin/bin/../../lib/gcc/pic32c/8.3.1/../../../../pic32c/lib/thumb/v7e-m+fp/hard\libg-musl.a(writev.o)
 .bss           0x0000000000000000        0x0 c:/program files/microchip/xc32/v4.60/bin/bin/../../lib/gcc/pic32c/8.3.1/../../../../pic32c/lib/thumb/v7e-m+fp/hard\libg-musl.a(writev.o)
 .xc_stack_usage
                0x0000000000000000       0x16 c:/program files/microchip/xc32/v4.60/bin/bin/../../lib/gcc/pic32c/8.3.1/../../../../pic32c/lib/thumb/v7e-m+fp/hard\libg-musl.a(writev.o)
 .xc_stack_usage.hdr
                0x0000000000000000        0xe c:/program files/microchip/xc32/v4.60/bin/bin/../../lib/gcc/pic32c/8.3.1/../../../../pic32c/lib/thumb/v7e-m+fp/hard\libg-musl.a(writev.o)
 .text          0x0000000000000000        0x0 c:/program files/microchip/xc32/v4.60/bin/bin/../../lib/gcc/pic32c/8.3.1/../../../../pic32c/lib/thumb/v7e-m+fp/hard\libg-musl.a(__overflow.o)
 .data          0x0000000000000000        0x0 c:/program files/microchip/xc32/v4.60/bin/bin/../../lib/gcc/pic32c/8.3.1/../../../../pic32c/lib/thumb/v7e-m+fp/hard\libg-musl.a(__overflow.o)
 .bss           0x0000000000000000        0x0 c:/program files/microchip/xc32/v4.60/bin/bin/../../lib/gcc/pic32c/8.3.1/../../../../pic32c/lib/thumb/v7e-m+fp/hard\libg-musl.a(__overflow.o)
 .xc_stack_usage
                0x0000000000000000       0x18 c:/program files/microchip/xc32/v4.60/bin/bin/../../lib/gcc/pic32c/8.3.1/../../../../pic32c/lib/thumb/v7e-m+fp/hard\libg-musl.a(__overflow.o)
 .xc_stack_usage.hdr
                0x0000000000000000        0xe c:/program files/microchip/xc32/v4.60/bin/bin/../../lib/gcc/pic32c/8.3.1/../../../../pic32c/lib/thumb/v7e-m+fp/hard\libg-musl.a(__overflow.o)
 .text          0x0000000000000000        0x0 c:/program files/microchip/xc32/v4.60/bin/bin/../../lib/gcc/pic32c/8.3.1/../../../../pic32c/lib/thumb/v7e-m+fp/hard\libg-musl.a(__fclose.o)
 .data          0x0000000000000000        0x0 c:/program files/microchip/xc32/v4.60/bin/bin/../../lib/gcc/pic32c/8.3.1/../../../../pic32c/lib/thumb/v7e-m+fp/hard\libg-musl.a(__fclose.o)
 .bss           0x0000000000000000        0x0 c:/program files/microchip/xc32/v4.60/bin/bin/../../lib/gcc/pic32c/8.3.1/../../../../pic32c/lib/thumb/v7e-m+fp/hard\libg-musl.a(__fclose.o)
 .xc_stack_usage
                0x0000000000000000       0x16 c:/program files/microchip/xc32/v4.60/bin/bin/../../lib/gcc/pic32c/8.3.1/../../../../pic32c/lib/thumb/v7e-m+fp/hard\libg-musl.a(__fclose.o)
 .text.__fclose
                0x0000000000000000        0xc c:/program files/microchip/xc32/v4.60/bin/bin/../../lib/gcc/pic32c/8.3.1/../../../../pic32c/lib/thumb/v7e-m+fp/hard\libg-musl.a(__fclose.o)
 .xc_stack_usage.hdr
                0x0000000000000000        0xe c:/program files/microchip/xc32/v4.60/bin/bin/../../lib/gcc/pic32c/8.3.1/../../../../pic32c/lib/thumb/v7e-m+fp/hard\libg-musl.a(__fclose.o)
 .debug_info    0x0000000000000000      0x1ba c:/program files/microchip/xc32/v4.60/bin/bin/../../lib/gcc/pic32c/8.3.1/../../../../pic32c/lib/thumb/v7e-m+fp/hard\libg-musl.a(__fclose.o)
 .debug_abbrev  0x0000000000000000       0xe0 c:/program files/microchip/xc32/v4.60/bin/bin/../../lib/gcc/pic32c/8.3.1/../../../../pic32c/lib/thumb/v7e-m+fp/hard\libg-musl.a(__fclose.o)
 .debug_loc     0x0000000000000000       0x74 c:/program files/microchip/xc32/v4.60/bin/bin/../../lib/gcc/pic32c/8.3.1/../../../../pic32c/lib/thumb/v7e-m+fp/hard\libg-musl.a(__fclose.o)
 .debug_aranges
                0x0000000000000000       0x20 c:/program files/microchip/xc32/v4.60/bin/bin/../../lib/gcc/pic32c/8.3.1/../../../../pic32c/lib/thumb/v7e-m+fp/hard\libg-musl.a(__fclose.o)
 .debug_ranges  0x0000000000000000       0x10 c:/program files/microchip/xc32/v4.60/bin/bin/../../lib/gcc/pic32c/8.3.1/../../../../pic32c/lib/thumb/v7e-m+fp/hard\libg-musl.a(__fclose.o)
 .debug_line    0x0000000000000000      0x14b c:/program files/microchip/xc32/v4.60/bin/bin/../../lib/gcc/pic32c/8.3.1/../../../../pic32c/lib/thumb/v7e-m+fp/hard\libg-musl.a(__fclose.o)
 .debug_str     0x0000000000000000      0x2d3 c:/program files/microchip/xc32/v4.60/bin/bin/../../lib/gcc/pic32c/8.3.1/../../../../pic32c/lib/thumb/v7e-m+fp/hard\libg-musl.a(__fclose.o)
 .comment       0x0000000000000000       0x2c c:/program files/microchip/xc32/v4.60/bin/bin/../../lib/gcc/pic32c/8.3.1/../../../../pic32c/lib/thumb/v7e-m+fp/hard\libg-musl.a(__fclose.o)
 .note.GNU-stack
                0x0000000000000000        0x0 c:/program files/microchip/xc32/v4.60/bin/bin/../../lib/gcc/pic32c/8.3.1/../../../../pic32c/lib/thumb/v7e-m+fp/hard\libg-musl.a(__fclose.o)
 .debug_frame   0x0000000000000000       0x20 c:/program files/microchip/xc32/v4.60/bin/bin/../../lib/gcc/pic32c/8.3.1/../../../../pic32c/lib/thumb/v7e-m+fp/hard\libg-musl.a(__fclose.o)
 .ARM.attributes
                0x0000000000000000       0x36 c:/program files/microchip/xc32/v4.60/bin/bin/../../lib/gcc/pic32c/8.3.1/../../../../pic32c/lib/thumb/v7e-m+fp/hard\libg-musl.a(__fclose.o)
 .text          0x0000000000000000        0x0 c:/program files/microchip/xc32/v4.60/bin/bin/../../lib/gcc/pic32c/8.3.1/../../../../pic32c/lib/thumb/v7e-m+fp/hard\libg-musl.a(__fopen.o)
 .data          0x0000000000000000        0x0 c:/program files/microchip/xc32/v4.60/bin/bin/../../lib/gcc/pic32c/8.3.1/../../../../pic32c/lib/thumb/v7e-m+fp/hard\libg-musl.a(__fopen.o)
 .bss           0x0000000000000000        0x0 c:/program files/microchip/xc32/v4.60/bin/bin/../../lib/gcc/pic32c/8.3.1/../../../../pic32c/lib/thumb/v7e-m+fp/hard\libg-musl.a(__fopen.o)
 .xc_stack_usage
                0x0000000000000000       0x43 c:/program files/microchip/xc32/v4.60/bin/bin/../../lib/gcc/pic32c/8.3.1/../../../../pic32c/lib/thumb/v7e-m+fp/hard\libg-musl.a(__fopen.o)
 .text.__dummy  0x0000000000000000        0x4 c:/program files/microchip/xc32/v4.60/bin/bin/../../lib/gcc/pic32c/8.3.1/../../../../pic32c/lib/thumb/v7e-m+fp/hard\libg-musl.a(__fopen.o)
 .text.__fopen_std
                0x0000000000000000       0x30 c:/program files/microchip/xc32/v4.60/bin/bin/../../lib/gcc/pic32c/8.3.1/../../../../pic32c/lib/thumb/v7e-m+fp/hard\libg-musl.a(__fopen.o)
 .text.__fopen  0x0000000000000000        0x8 c:/program files/microchip/xc32/v4.60/bin/bin/../../lib/gcc/pic32c/8.3.1/../../../../pic32c/lib/thumb/v7e-m+fp/hard\libg-musl.a(__fopen.o)
 .xc_stack_usage.hdr
                0x0000000000000000        0xe c:/program files/microchip/xc32/v4.60/bin/bin/../../lib/gcc/pic32c/8.3.1/../../../../pic32c/lib/thumb/v7e-m+fp/hard\libg-musl.a(__fopen.o)
 .debug_info    0x0000000000000000      0x2e2 c:/program files/microchip/xc32/v4.60/bin/bin/../../lib/gcc/pic32c/8.3.1/../../../../pic32c/lib/thumb/v7e-m+fp/hard\libg-musl.a(__fopen.o)
 .debug_abbrev  0x0000000000000000      0x17c c:/program files/microchip/xc32/v4.60/bin/bin/../../lib/gcc/pic32c/8.3.1/../../../../pic32c/lib/thumb/v7e-m+fp/hard\libg-musl.a(__fopen.o)
 .debug_loc     0x0000000000000000       0x94 c:/program files/microchip/xc32/v4.60/bin/bin/../../lib/gcc/pic32c/8.3.1/../../../../pic32c/lib/thumb/v7e-m+fp/hard\libg-musl.a(__fopen.o)
 .debug_aranges
                0x0000000000000000       0x30 c:/program files/microchip/xc32/v4.60/bin/bin/../../lib/gcc/pic32c/8.3.1/../../../../pic32c/lib/thumb/v7e-m+fp/hard\libg-musl.a(__fopen.o)
 .debug_ranges  0x0000000000000000       0x20 c:/program files/microchip/xc32/v4.60/bin/bin/../../lib/gcc/pic32c/8.3.1/../../../../pic32c/lib/thumb/v7e-m+fp/hard\libg-musl.a(__fopen.o)
 .debug_line    0x0000000000000000      0x216 c:/program files/microchip/xc32/v4.60/bin/bin/../../lib/gcc/pic32c/8.3.1/../../../../pic32c/lib/thumb/v7e-m+fp/hard\libg-musl.a(__fopen.o)
 .debug_str     0x0000000000000000      0x310 c:/program files/microchip/xc32/v4.60/bin/bin/../../lib/gcc/pic32c/8.3.1/../../../../pic32c/lib/thumb/v7e-m+fp/hard\libg-musl.a(__fopen.o)
 .comment       0x0000000000000000       0x2c c:/program files/microchip/xc32/v4.60/bin/bin/../../lib/gcc/pic32c/8.3.1/../../../../pic32c/lib/thumb/v7e-m+fp/hard\libg-musl.a(__fopen.o)
 .note.GNU-stack
                0x0000000000000000        0x0 c:/program files/microchip/xc32/v4.60/bin/bin/../../lib/gcc/pic32c/8.3.1/../../../../pic32c/lib/thumb/v7e-m+fp/hard\libg-musl.a(__fopen.o)
 .debug_frame   0x0000000000000000       0x50 c:/program files/microchip/xc32/v4.60/bin/bin/../../lib/gcc/pic32c/8.3.1/../../../../pic32c/lib/thumb/v7e-m+fp/hard\libg-musl.a(__fopen.o)
 .ARM.attributes
                0x0000000000000000       0x36 c:/program files/microchip/xc32/v4.60/bin/bin/../../lib/gcc/pic32c/8.3.1/../../../../pic32c/lib/thumb/v7e-m+fp/hard\libg-musl.a(__fopen.o)
 .text          0x0000000000000000        0x0 c:/program files/microchip/xc32/v4.60/bin/bin/../../lib/gcc/pic32c/8.3.1/../../../../pic32c/lib/thumb/v7e-m+fp/hard\libg-musl.a(__fseeko.o)
 .data          0x0000000000000000        0x0 c:/program files/microchip/xc32/v4.60/bin/bin/../../lib/gcc/pic32c/8.3.1/../../../../pic32c/lib/thumb/v7e-m+fp/hard\libg-musl.a(__fseeko.o)
 .bss           0x0000000000000000        0x0 c:/program files/microchip/xc32/v4.60/bin/bin/../../lib/gcc/pic32c/8.3.1/../../../../pic32c/lib/thumb/v7e-m+fp/hard\libg-musl.a(__fseeko.o)
 .xc_stack_usage
                0x0000000000000000       0x16 c:/program files/microchip/xc32/v4.60/bin/bin/../../lib/gcc/pic32c/8.3.1/../../../../pic32c/lib/thumb/v7e-m+fp/hard\libg-musl.a(__fseeko.o)
 .text.__fseeko
                0x0000000000000000        0x4 c:/program files/microchip/xc32/v4.60/bin/bin/../../lib/gcc/pic32c/8.3.1/../../../../pic32c/lib/thumb/v7e-m+fp/hard\libg-musl.a(__fseeko.o)
 .xc_stack_usage.hdr
                0x0000000000000000        0xe c:/program files/microchip/xc32/v4.60/bin/bin/../../lib/gcc/pic32c/8.3.1/../../../../pic32c/lib/thumb/v7e-m+fp/hard\libg-musl.a(__fseeko.o)
 .debug_info    0x0000000000000000      0x26a c:/program files/microchip/xc32/v4.60/bin/bin/../../lib/gcc/pic32c/8.3.1/../../../../pic32c/lib/thumb/v7e-m+fp/hard\libg-musl.a(__fseeko.o)
 .debug_abbrev  0x0000000000000000       0xfb c:/program files/microchip/xc32/v4.60/bin/bin/../../lib/gcc/pic32c/8.3.1/../../../../pic32c/lib/thumb/v7e-m+fp/hard\libg-musl.a(__fseeko.o)
 .debug_loc     0x0000000000000000       0x6f c:/program files/microchip/xc32/v4.60/bin/bin/../../lib/gcc/pic32c/8.3.1/../../../../pic32c/lib/thumb/v7e-m+fp/hard\libg-musl.a(__fseeko.o)
 .debug_aranges
                0x0000000000000000       0x20 c:/program files/microchip/xc32/v4.60/bin/bin/../../lib/gcc/pic32c/8.3.1/../../../../pic32c/lib/thumb/v7e-m+fp/hard\libg-musl.a(__fseeko.o)
 .debug_ranges  0x0000000000000000       0x10 c:/program files/microchip/xc32/v4.60/bin/bin/../../lib/gcc/pic32c/8.3.1/../../../../pic32c/lib/thumb/v7e-m+fp/hard\libg-musl.a(__fseeko.o)
 .debug_line    0x0000000000000000      0x13a c:/program files/microchip/xc32/v4.60/bin/bin/../../lib/gcc/pic32c/8.3.1/../../../../pic32c/lib/thumb/v7e-m+fp/hard\libg-musl.a(__fseeko.o)
 .debug_str     0x0000000000000000      0x2f0 c:/program files/microchip/xc32/v4.60/bin/bin/../../lib/gcc/pic32c/8.3.1/../../../../pic32c/lib/thumb/v7e-m+fp/hard\libg-musl.a(__fseeko.o)
 .comment       0x0000000000000000       0x2c c:/program files/microchip/xc32/v4.60/bin/bin/../../lib/gcc/pic32c/8.3.1/../../../../pic32c/lib/thumb/v7e-m+fp/hard\libg-musl.a(__fseeko.o)
 .note.GNU-stack
                0x0000000000000000        0x0 c:/program files/microchip/xc32/v4.60/bin/bin/../../lib/gcc/pic32c/8.3.1/../../../../pic32c/lib/thumb/v7e-m+fp/hard\libg-musl.a(__fseeko.o)
 .debug_frame   0x0000000000000000       0x20 c:/program files/microchip/xc32/v4.60/bin/bin/../../lib/gcc/pic32c/8.3.1/../../../../pic32c/lib/thumb/v7e-m+fp/hard\libg-musl.a(__fseeko.o)
 .ARM.attributes
                0x0000000000000000       0x36 c:/program files/microchip/xc32/v4.60/bin/bin/../../lib/gcc/pic32c/8.3.1/../../../../pic32c/lib/thumb/v7e-m+fp/hard\libg-musl.a(__fseeko.o)
 .text          0x0000000000000000        0x0 c:/program files/microchip/xc32/v4.60/bin/bin/../../lib/gcc/pic32c/8.3.1/../../../../pic32c/lib/thumb/v7e-m+fp/hard\libg-musl.a(__ftello.o)
 .data          0x0000000000000000        0x0 c:/program files/microchip/xc32/v4.60/bin/bin/../../lib/gcc/pic32c/8.3.1/../../../../pic32c/lib/thumb/v7e-m+fp/hard\libg-musl.a(__ftello.o)
 .bss           0x0000000000000000        0x0 c:/program files/microchip/xc32/v4.60/bin/bin/../../lib/gcc/pic32c/8.3.1/../../../../pic32c/lib/thumb/v7e-m+fp/hard\libg-musl.a(__ftello.o)
 .xc_stack_usage
                0x0000000000000000       0x2f c:/program files/microchip/xc32/v4.60/bin/bin/../../lib/gcc/pic32c/8.3.1/../../../../pic32c/lib/thumb/v7e-m+fp/hard\libg-musl.a(__ftello.o)
 .text.__dummy  0x0000000000000000       0x1c c:/program files/microchip/xc32/v4.60/bin/bin/../../lib/gcc/pic32c/8.3.1/../../../../pic32c/lib/thumb/v7e-m+fp/hard\libg-musl.a(__ftello.o)
 .text.__ftello_adj
                0x0000000000000000        0x8 c:/program files/microchip/xc32/v4.60/bin/bin/../../lib/gcc/pic32c/8.3.1/../../../../pic32c/lib/thumb/v7e-m+fp/hard\libg-musl.a(__ftello.o)
 .xc_stack_usage.hdr
                0x0000000000000000        0xe c:/program files/microchip/xc32/v4.60/bin/bin/../../lib/gcc/pic32c/8.3.1/../../../../pic32c/lib/thumb/v7e-m+fp/hard\libg-musl.a(__ftello.o)
 .debug_info    0x0000000000000000      0x294 c:/program files/microchip/xc32/v4.60/bin/bin/../../lib/gcc/pic32c/8.3.1/../../../../pic32c/lib/thumb/v7e-m+fp/hard\libg-musl.a(__ftello.o)
 .debug_abbrev  0x0000000000000000      0x111 c:/program files/microchip/xc32/v4.60/bin/bin/../../lib/gcc/pic32c/8.3.1/../../../../pic32c/lib/thumb/v7e-m+fp/hard\libg-musl.a(__ftello.o)
 .debug_loc     0x0000000000000000       0xaf c:/program files/microchip/xc32/v4.60/bin/bin/../../lib/gcc/pic32c/8.3.1/../../../../pic32c/lib/thumb/v7e-m+fp/hard\libg-musl.a(__ftello.o)
 .debug_aranges
                0x0000000000000000       0x28 c:/program files/microchip/xc32/v4.60/bin/bin/../../lib/gcc/pic32c/8.3.1/../../../../pic32c/lib/thumb/v7e-m+fp/hard\libg-musl.a(__ftello.o)
 .debug_ranges  0x0000000000000000       0x18 c:/program files/microchip/xc32/v4.60/bin/bin/../../lib/gcc/pic32c/8.3.1/../../../../pic32c/lib/thumb/v7e-m+fp/hard\libg-musl.a(__ftello.o)
 .debug_line    0x0000000000000000      0x174 c:/program files/microchip/xc32/v4.60/bin/bin/../../lib/gcc/pic32c/8.3.1/../../../../pic32c/lib/thumb/v7e-m+fp/hard\libg-musl.a(__ftello.o)
 .debug_str     0x0000000000000000      0x2f5 c:/program files/microchip/xc32/v4.60/bin/bin/../../lib/gcc/pic32c/8.3.1/../../../../pic32c/lib/thumb/v7e-m+fp/hard\libg-musl.a(__ftello.o)
 .comment       0x0000000000000000       0x2c c:/program files/microchip/xc32/v4.60/bin/bin/../../lib/gcc/pic32c/8.3.1/../../../../pic32c/lib/thumb/v7e-m+fp/hard\libg-musl.a(__ftello.o)
 .note.GNU-stack
                0x0000000000000000        0x0 c:/program files/microchip/xc32/v4.60/bin/bin/../../lib/gcc/pic32c/8.3.1/../../../../pic32c/lib/thumb/v7e-m+fp/hard\libg-musl.a(__ftello.o)
 .debug_frame   0x0000000000000000       0x40 c:/program files/microchip/xc32/v4.60/bin/bin/../../lib/gcc/pic32c/8.3.1/../../../../pic32c/lib/thumb/v7e-m+fp/hard\libg-musl.a(__ftello.o)
 .ARM.attributes
                0x0000000000000000       0x36 c:/program files/microchip/xc32/v4.60/bin/bin/../../lib/gcc/pic32c/8.3.1/../../../../pic32c/lib/thumb/v7e-m+fp/hard\libg-musl.a(__ftello.o)
 .text          0x0000000000000000        0x0 c:/program files/microchip/xc32/v4.60/bin/bin/../../lib/gcc/pic32c/8.3.1/../../../../pic32c/lib/thumb/v7e-m+fp/hard\libg-musl.a(__fwrite.o)
 .data          0x0000000000000000        0x0 c:/program files/microchip/xc32/v4.60/bin/bin/../../lib/gcc/pic32c/8.3.1/../../../../pic32c/lib/thumb/v7e-m+fp/hard\libg-musl.a(__fwrite.o)
 .bss           0x0000000000000000        0x0 c:/program files/microchip/xc32/v4.60/bin/bin/../../lib/gcc/pic32c/8.3.1/../../../../pic32c/lib/thumb/v7e-m+fp/hard\libg-musl.a(__fwrite.o)
 .xc_stack_usage
                0x0000000000000000       0x36 c:/program files/microchip/xc32/v4.60/bin/bin/../../lib/gcc/pic32c/8.3.1/../../../../pic32c/lib/thumb/v7e-m+fp/hard\libg-musl.a(__fwrite.o)
 .xc_stack_usage.hdr
                0x0000000000000000        0xe c:/program files/microchip/xc32/v4.60/bin/bin/../../lib/gcc/pic32c/8.3.1/../../../../pic32c/lib/thumb/v7e-m+fp/hard\libg-musl.a(__fwrite.o)
 .data          0x0000000000000000        0x0 c:/program files/microchip/xc32/v4.60/bin/bin/../../lib/gcc/pic32c/8.3.1/thumb/v7e-m+fp/hard\libgcc.a(_aeabi_uldivmod.o)
 .bss           0x0000000000000000        0x0 c:/program files/microchip/xc32/v4.60/bin/bin/../../lib/gcc/pic32c/8.3.1/thumb/v7e-m+fp/hard\libgcc.a(_aeabi_uldivmod.o)
 .xc_stack_usage.hdr
                0x0000000000000000        0xe c:/program files/microchip/xc32/v4.60/bin/bin/../../lib/gcc/pic32c/8.3.1/thumb/v7e-m+fp/hard\libgcc.a(_aeabi_uldivmod.o)
 .xc_stack_usage
                0x0000000000000000       0x1e c:/program files/microchip/xc32/v4.60/bin/bin/../../lib/gcc/pic32c/8.3.1/thumb/v7e-m+fp/hard\libgcc.a(_aeabi_uldivmod.o)
 .data          0x0000000000000000        0x0 c:/program files/microchip/xc32/v4.60/bin/bin/../../lib/gcc/pic32c/8.3.1/thumb/v7e-m+fp/hard\libgcc.a(_udivmoddi4.o)
 .bss           0x0000000000000000        0x0 c:/program files/microchip/xc32/v4.60/bin/bin/../../lib/gcc/pic32c/8.3.1/thumb/v7e-m+fp/hard\libgcc.a(_udivmoddi4.o)
 .xc_stack_usage
                0x0000000000000000       0x1a c:/program files/microchip/xc32/v4.60/bin/bin/../../lib/gcc/pic32c/8.3.1/thumb/v7e-m+fp/hard\libgcc.a(_udivmoddi4.o)
 .ARM.extab     0x0000000000000000        0x0 c:/program files/microchip/xc32/v4.60/bin/bin/../../lib/gcc/pic32c/8.3.1/thumb/v7e-m+fp/hard\libgcc.a(_udivmoddi4.o)
 .xc_stack_usage.hdr
                0x0000000000000000        0xe c:/program files/microchip/xc32/v4.60/bin/bin/../../lib/gcc/pic32c/8.3.1/thumb/v7e-m+fp/hard\libgcc.a(_udivmoddi4.o)
 .data          0x0000000000000000        0x0 c:/program files/microchip/xc32/v4.60/bin/bin/../../lib/gcc/pic32c/8.3.1/thumb/v7e-m+fp/hard\libgcc.a(_dvmd_tls.o)
 .bss           0x0000000000000000        0x0 c:/program files/microchip/xc32/v4.60/bin/bin/../../lib/gcc/pic32c/8.3.1/thumb/v7e-m+fp/hard\libgcc.a(_dvmd_tls.o)
 .xc_stack_usage.hdr
                0x0000000000000000        0xe c:/program files/microchip/xc32/v4.60/bin/bin/../../lib/gcc/pic32c/8.3.1/thumb/v7e-m+fp/hard\libgcc.a(_dvmd_tls.o)
 .xc_stack_usage
                0x0000000000000000       0x36 c:/program files/microchip/xc32/v4.60/bin/bin/../../lib/gcc/pic32c/8.3.1/thumb/v7e-m+fp/hard\libgcc.a(_dvmd_tls.o)
 .text          0x0000000000000000        0x0 c:/program files/microchip/xc32/v4.60/bin/bin/../../lib/gcc/pic32c/8.3.1/../../../../pic32c/lib/thumb/v7e-m+fp/hard\libpic32c.a(close.o)
 .data          0x0000000000000000        0x0 c:/program files/microchip/xc32/v4.60/bin/bin/../../lib/gcc/pic32c/8.3.1/../../../../pic32c/lib/thumb/v7e-m+fp/hard\libpic32c.a(close.o)
 .bss           0x0000000000000000        0x0 c:/program files/microchip/xc32/v4.60/bin/bin/../../lib/gcc/pic32c/8.3.1/../../../../pic32c/lib/thumb/v7e-m+fp/hard\libpic32c.a(close.o)
 .xc_stack_usage
                0x0000000000000000       0x13 c:/program files/microchip/xc32/v4.60/bin/bin/../../lib/gcc/pic32c/8.3.1/../../../../pic32c/lib/thumb/v7e-m+fp/hard\libpic32c.a(close.o)
 .gnu.warning.closestub
                0x0000000000000000        0x0 c:/program files/microchip/xc32/v4.60/bin/bin/../../lib/gcc/pic32c/8.3.1/../../../../pic32c/lib/thumb/v7e-m+fp/hard\libpic32c.a(close.o)
 .xc_stack_usage.hdr
                0x0000000000000000        0xe c:/program files/microchip/xc32/v4.60/bin/bin/../../lib/gcc/pic32c/8.3.1/../../../../pic32c/lib/thumb/v7e-m+fp/hard\libpic32c.a(close.o)
 .text          0x0000000000000000        0x0 c:/program files/microchip/xc32/v4.60/bin/bin/../../lib/gcc/pic32c/8.3.1/../../../../pic32c/lib/thumb/v7e-m+fp/hard\libpic32c.a(lseek.o)
 .data          0x0000000000000000        0x0 c:/program files/microchip/xc32/v4.60/bin/bin/../../lib/gcc/pic32c/8.3.1/../../../../pic32c/lib/thumb/v7e-m+fp/hard\libpic32c.a(lseek.o)
 .bss           0x0000000000000000        0x0 c:/program files/microchip/xc32/v4.60/bin/bin/../../lib/gcc/pic32c/8.3.1/../../../../pic32c/lib/thumb/v7e-m+fp/hard\libpic32c.a(lseek.o)
 .xc_stack_usage
                0x0000000000000000       0x13 c:/program files/microchip/xc32/v4.60/bin/bin/../../lib/gcc/pic32c/8.3.1/../../../../pic32c/lib/thumb/v7e-m+fp/hard\libpic32c.a(lseek.o)
 .xc_stack_usage.hdr
                0x0000000000000000        0xe c:/program files/microchip/xc32/v4.60/bin/bin/../../lib/gcc/pic32c/8.3.1/../../../../pic32c/lib/thumb/v7e-m+fp/hard\libpic32c.a(lseek.o)
 .text          0x0000000000000000        0x0 c:/program files/microchip/xc32/v4.60/bin/bin/../../lib/gcc/pic32c/8.3.1/../../../../pic32c/lib/thumb/v7e-m+fp/hard\libc-size-musl.a(strlen.o)
 .data          0x0000000000000000        0x0 c:/program files/microchip/xc32/v4.60/bin/bin/../../lib/gcc/pic32c/8.3.1/../../../../pic32c/lib/thumb/v7e-m+fp/hard\libc-size-musl.a(strlen.o)
 .bss           0x0000000000000000        0x0 c:/program files/microchip/xc32/v4.60/bin/bin/../../lib/gcc/pic32c/8.3.1/../../../../pic32c/lib/thumb/v7e-m+fp/hard\libc-size-musl.a(strlen.o)
 .xc_stack_usage
                0x0000000000000000       0x14 c:/program files/microchip/xc32/v4.60/bin/bin/../../lib/gcc/pic32c/8.3.1/../../../../pic32c/lib/thumb/v7e-m+fp/hard\libc-size-musl.a(strlen.o)
 .xc_stack_usage.hdr
                0x0000000000000000        0xe c:/program files/microchip/xc32/v4.60/bin/bin/../../lib/gcc/pic32c/8.3.1/../../../../pic32c/lib/thumb/v7e-m+fp/hard\libc-size-musl.a(strlen.o)
 .text          0x0000000000000000        0x0 c:/program files/microchip/xc32/v4.60/bin/bin/../../lib/gcc/pic32c/8.3.1/../../../../pic32c/lib/thumb/v7e-m+fp/hard\liblmalloc-musl.a(lite_malloc.o)
 .bss           0x0000000000000000        0x0 c:/program files/microchip/xc32/v4.60/bin/bin/../../lib/gcc/pic32c/8.3.1/../../../../pic32c/lib/thumb/v7e-m+fp/hard\liblmalloc-musl.a(lite_malloc.o)
 .xc_stack_usage
                0x0000000000000000       0x1d c:/program files/microchip/xc32/v4.60/bin/bin/../../lib/gcc/pic32c/8.3.1/../../../../pic32c/lib/thumb/v7e-m+fp/hard\liblmalloc-musl.a(lite_malloc.o)
 .xc_stack_usage.hdr
                0x0000000000000000        0xe c:/program files/microchip/xc32/v4.60/bin/bin/../../lib/gcc/pic32c/8.3.1/../../../../pic32c/lib/thumb/v7e-m+fp/hard\liblmalloc-musl.a(lite_malloc.o)
 .text          0x0000000000000000        0x0 c:/program files/microchip/xc32/v4.60/bin/bin/../../lib/gcc/pic32c/8.3.1/../../../../pic32c/lib/thumb/v7e-m+fp/hard\liblmalloc-musl.a(lite_free.o)
 .data          0x0000000000000000        0x0 c:/program files/microchip/xc32/v4.60/bin/bin/../../lib/gcc/pic32c/8.3.1/../../../../pic32c/lib/thumb/v7e-m+fp/hard\liblmalloc-musl.a(lite_free.o)
 .xc_stack_usage
                0x0000000000000000       0x59 c:/program files/microchip/xc32/v4.60/bin/bin/../../lib/gcc/pic32c/8.3.1/../../../../pic32c/lib/thumb/v7e-m+fp/hard\liblmalloc-musl.a(lite_free.o)
 .text.__simple_free
                0x0000000000000000       0x44 c:/program files/microchip/xc32/v4.60/bin/bin/../../lib/gcc/pic32c/8.3.1/../../../../pic32c/lib/thumb/v7e-m+fp/hard\liblmalloc-musl.a(lite_free.o)
 .xc_stack_usage.hdr
                0x0000000000000000        0xe c:/program files/microchip/xc32/v4.60/bin/bin/../../lib/gcc/pic32c/8.3.1/../../../../pic32c/lib/thumb/v7e-m+fp/hard\liblmalloc-musl.a(lite_free.o)
 .text          0x0000000000000000        0x0 c:/program files/microchip/xc32/v4.60/bin/bin/../../lib/gcc/pic32c/8.3.1/../../../../pic32c/lib/thumb/v7e-m+fp/hard\libg-musl.a(expand_heap.o)
 .data          0x0000000000000000        0x0 c:/program files/microchip/xc32/v4.60/bin/bin/../../lib/gcc/pic32c/8.3.1/../../../../pic32c/lib/thumb/v7e-m+fp/hard\libg-musl.a(expand_heap.o)
 .bss           0x0000000000000000        0x0 c:/program files/microchip/xc32/v4.60/bin/bin/../../lib/gcc/pic32c/8.3.1/../../../../pic32c/lib/thumb/v7e-m+fp/hard\libg-musl.a(expand_heap.o)
 .xc_stack_usage
                0x0000000000000000       0x1b c:/program files/microchip/xc32/v4.60/bin/bin/../../lib/gcc/pic32c/8.3.1/../../../../pic32c/lib/thumb/v7e-m+fp/hard\libg-musl.a(expand_heap.o)
 .xc_stack_usage.hdr
                0x0000000000000000        0xe c:/program files/microchip/xc32/v4.60/bin/bin/../../lib/gcc/pic32c/8.3.1/../../../../pic32c/lib/thumb/v7e-m+fp/hard\libg-musl.a(expand_heap.o)
 .text          0x0000000000000000        0x0 c:/program files/microchip/xc32/v4.60/bin/bin/../../lib/gcc/pic32c/8.3.1/../../../../pic32c/lib/thumb/v7e-m+fp/hard\libpic32c.a(sbrk.o)
 .data          0x0000000000000000        0x0 c:/program files/microchip/xc32/v4.60/bin/bin/../../lib/gcc/pic32c/8.3.1/../../../../pic32c/lib/thumb/v7e-m+fp/hard\libpic32c.a(sbrk.o)
 .xc_stack_usage
                0x0000000000000000       0x4d c:/program files/microchip/xc32/v4.60/bin/bin/../../lib/gcc/pic32c/8.3.1/../../../../pic32c/lib/thumb/v7e-m+fp/hard\libpic32c.a(sbrk.o)
 .xc_stack_usage.hdr
                0x0000000000000000        0xe c:/program files/microchip/xc32/v4.60/bin/bin/../../lib/gcc/pic32c/8.3.1/../../../../pic32c/lib/thumb/v7e-m+fp/hard\libpic32c.a(sbrk.o)
 .text          0x0000000000000000        0x0 c:/program files/microchip/xc32/v4.60/bin/bin/../../lib/gcc/pic32c/8.3.1/thumb/v7e-m+fp/hard/crtend.o
 .data          0x0000000000000000        0x0 c:/program files/microchip/xc32/v4.60/bin/bin/../../lib/gcc/pic32c/8.3.1/thumb/v7e-m+fp/hard/crtend.o
 .bss           0x0000000000000000        0x0 c:/program files/microchip/xc32/v4.60/bin/bin/../../lib/gcc/pic32c/8.3.1/thumb/v7e-m+fp/hard/crtend.o
 .eh_frame      0x0000000000000000        0x4 c:/program files/microchip/xc32/v4.60/bin/bin/../../lib/gcc/pic32c/8.3.1/thumb/v7e-m+fp/hard/crtend.o
 .xc_stack_usage.hdr
                0x0000000000000000        0xe c:/program files/microchip/xc32/v4.60/bin/bin/../../lib/gcc/pic32c/8.3.1/thumb/v7e-m+fp/hard/crtend.o
 .comment       0x0000000000000000       0x2c c:/program files/microchip/xc32/v4.60/bin/bin/../../lib/gcc/pic32c/8.3.1/thumb/v7e-m+fp/hard/crtend.o
 .ARM.attributes
                0x0000000000000000       0x32 c:/program files/microchip/xc32/v4.60/bin/bin/../../lib/gcc/pic32c/8.3.1/thumb/v7e-m+fp/hard/crtend.o
 .text          0x0000000000000000        0x0 c:/program files/microchip/xc32/v4.60/bin/bin/../../lib/gcc/pic32c/8.3.1/thumb/v7e-m+fp/hard/crtn.o
 .data          0x0000000000000000        0x0 c:/program files/microchip/xc32/v4.60/bin/bin/../../lib/gcc/pic32c/8.3.1/thumb/v7e-m+fp/hard/crtn.o
 .bss           0x0000000000000000        0x0 c:/program files/microchip/xc32/v4.60/bin/bin/../../lib/gcc/pic32c/8.3.1/thumb/v7e-m+fp/hard/crtn.o
 .xc_stack_usage.hdr
                0x0000000000000000        0xe c:/program files/microchip/xc32/v4.60/bin/bin/../../lib/gcc/pic32c/8.3.1/thumb/v7e-m+fp/hard/crtn.o
 .text          0x0000000000000000        0x0 c:/program files/microchip/xc32/v4.60/bin/bin/../../lib/gcc/pic32c/8.3.1/../../../../pic32c/lib/thumb/v7e-m+fp/hard\libpic32c.a(pic32_data_init_clear.o)
 .data          0x0000000000000000        0x0 c:/program files/microchip/xc32/v4.60/bin/bin/../../lib/gcc/pic32c/8.3.1/../../../../pic32c/lib/thumb/v7e-m+fp/hard\libpic32c.a(pic32_data_init_clear.o)
 .bss           0x0000000000000000        0x0 c:/program files/microchip/xc32/v4.60/bin/bin/../../lib/gcc/pic32c/8.3.1/../../../../pic32c/lib/thumb/v7e-m+fp/hard\libpic32c.a(pic32_data_init_clear.o)
 .xc_stack_usage
                0x0000000000000000       0x1b c:/program files/microchip/xc32/v4.60/bin/bin/../../lib/gcc/pic32c/8.3.1/../../../../pic32c/lib/thumb/v7e-m+fp/hard\libpic32c.a(pic32_data_init_clear.o)
 .xc_stack_usage.hdr
                0x0000000000000000        0xe c:/program files/microchip/xc32/v4.60/bin/bin/../../lib/gcc/pic32c/8.3.1/../../../../pic32c/lib/thumb/v7e-m+fp/hard\libpic32c.a(pic32_data_init_clear.o)
 .text          0x0000000000000000        0x0 c:/program files/microchip/xc32/v4.60/bin/bin/../../lib/gcc/pic32c/8.3.1/../../../../pic32c/lib/thumb/v7e-m+fp/hard\libpic32c.a(pic32_data_init_copy.o)
 .data          0x0000000000000000        0x0 c:/program files/microchip/xc32/v4.60/bin/bin/../../lib/gcc/pic32c/8.3.1/../../../../pic32c/lib/thumb/v7e-m+fp/hard\libpic32c.a(pic32_data_init_copy.o)
 .bss           0x0000000000000000        0x0 c:/program files/microchip/xc32/v4.60/bin/bin/../../lib/gcc/pic32c/8.3.1/../../../../pic32c/lib/thumb/v7e-m+fp/hard\libpic32c.a(pic32_data_init_copy.o)
 .xc_stack_usage
                0x0000000000000000       0x1a c:/program files/microchip/xc32/v4.60/bin/bin/../../lib/gcc/pic32c/8.3.1/../../../../pic32c/lib/thumb/v7e-m+fp/hard\libpic32c.a(pic32_data_init_copy.o)
 .xc_stack_usage.hdr
                0x0000000000000000        0xe c:/program files/microchip/xc32/v4.60/bin/bin/../../lib/gcc/pic32c/8.3.1/../../../../pic32c/lib/thumb/v7e-m+fp/hard\libpic32c.a(pic32_data_init_copy.o)

Memory Configuration

Name             Origin             Length             Attributes
rom              0x0000000000000000 0x0000000000100000 xrl
ram              0x0000000020000000 0x0000000000040000 xw !r
tcm              0x0000000003000000 0x0000000000000000 xw
bkupram          0x0000000047000000 0x0000000000002000
config_00804000  0x0000000000804000 0x0000000000000004
config_00804004  0x0000000000804004 0x0000000000000004
config_00804008  0x0000000000804008 0x0000000000000004
*default*        0x0000000000000000 0xffffffffffffffff

Linker script and memory map

LOAD c:/program files/microchip/xc32/v4.60/bin/bin/../../lib/gcc/pic32c/8.3.1/thumb/v7e-m+fp/hard/crti.o
LOAD c:/program files/microchip/xc32/v4.60/bin/bin/../../lib/gcc/pic32c/8.3.1/thumb/v7e-m+fp/hard/crtbegin.o
LOAD build/default/debug/_ext/1984496892/plib_clock.o
LOAD build/default/debug/_ext/1865131932/plib_cmcc.o
LOAD build/default/debug/_ext/1865161661/plib_dmac.o
LOAD build/default/debug/_ext/1986646378/plib_evsys.o
LOAD build/default/debug/_ext/1865468468/plib_nvic.o
LOAD build/default/debug/_ext/1593096446/plib_nvmctrl.o
LOAD build/default/debug/_ext/1865521619/plib_port.o
LOAD build/default/debug/_ext/17022449/plib_sercom1_spi_master.o
LOAD build/default/debug/_ext/1827571544/plib_systick.o
LOAD build/default/debug/_ext/60181570/plib_tcc0.o
LOAD build/default/debug/_ext/1865643529/plib_trng.o
LOAD build/default/debug/_ext/163028504/xc32_monitor.o
LOAD build/default/debug/_ext/1171490990/initialization.o
LOAD build/default/debug/_ext/1171490990/interrupts.o
LOAD build/default/debug/_ext/1171490990/exceptions.o
LOAD build/default/debug/_ext/1171490990/startup_xc32.o
LOAD build/default/debug/_ext/1171490990/libc_syscalls.o
LOAD build/default/debug/_ext/1171490990/freertos_hooks.o
LOAD build/default/debug/_ext/246609638/port.o
LOAD build/default/debug/_ext/1665200909/heap_1.o
LOAD build/default/debug/_ext/404212886/croutine.o
LOAD build/default/debug/_ext/404212886/list.o
LOAD build/default/debug/_ext/404212886/queue.o
LOAD build/default/debug/_ext/404212886/FreeRTOS_tasks.o
LOAD build/default/debug/_ext/404212886/timers.o
LOAD build/default/debug/_ext/404212886/event_groups.o
LOAD build/default/debug/_ext/404212886/stream_buffer.o
LOAD build/default/debug/_ext/1360937237/main.o
LOAD build/default/debug/_ext/1360937237/neopixel.o
LOAD build/default/debug/_ext/1360937237/dsun_sensor.o
LOAD build/default/debug/_ext/1360937237/lcd_i2c.o
LOAD build/default/debug/_ext/1360937237/actuator.o
LOAD build/default/debug/_ext/1360937237/dcc_stdio.o
LOAD build/default/debug/_ext/504274921/plib_sercom5_usart.o
                0x0000000000000001                __MPLAB_BUILD = 0x1
                0x0000000000100000                __rom_end = (ORIGIN (rom) + LENGTH (rom))
                0x0000000020040000                __ram_end = (ORIGIN (ram) + LENGTH (ram))

.config_00804000
 *(.config_00804000)

.config_00804004
 *(.config_00804004)

.config_00804008
 *(.config_00804008)

.vectors        0x0000000000000000      0x260
                0x0000000000000000                . = ALIGN (0x4)
                0x0000000000000000                _sfixed = .
 *(.vectors .vectors.* .vectors_default .vectors_default.*)
 .vectors.exception_table
                0x0000000000000000      0x260 build/default/debug/_ext/1171490990/interrupts.o
                0x0000000000000000                exception_table
 *(.isr_vector)
 *(.reset*)
 *(.after_vectors)

.text           0x0000000000000260       0x20
                0x0000000000000260                . = ALIGN (0x4)
 *(.glue_7t)
 .glue_7t       0x0000000000000260        0x0 linker stubs
 *(.glue_7)
 .glue_7        0x0000000000000260        0x0 linker stubs
 *(.gnu.linkonce.r.*)
 *(.ARM.extab* .gnu.linkonce.armextab.*)
                0x0000000000000260                . = ALIGN (0x4)
 *(.init)
 .init          0x0000000000000260        0x4 c:/program files/microchip/xc32/v4.60/bin/bin/../../lib/gcc/pic32c/8.3.1/thumb/v7e-m+fp/hard/crti.o
                0x0000000000000260                _init
 .init          0x0000000000000264        0x8 c:/program files/microchip/xc32/v4.60/bin/bin/../../lib/gcc/pic32c/8.3.1/thumb/v7e-m+fp/hard/crtn.o
                0x000000000000026c                . = ALIGN (0x4)
                0x000000000000026c                __preinit_array_start = .
 *(.preinit_array)
                0x000000000000026c                __preinit_array_end = .
                0x000000000000026c                . = ALIGN (0x4)
                0x000000000000026c                __init_array_start = .
 *(SORT_BY_NAME(.init_array.*))
 *(.init_array)
 .init_array    0x000000000000026c        0x4 c:/program files/microchip/xc32/v4.60/bin/bin/../../lib/gcc/pic32c/8.3.1/thumb/v7e-m+fp/hard/crtbegin.o
                0x0000000000000270                __init_array_end = .
                0x0000000000000270                . = ALIGN (0x4)
 *crtbegin.o(.ctors)
 *(EXCLUDE_FILE(*crtend.o) .ctors)
 *(SORT_BY_NAME(.ctors.*))
 *crtend.o(.ctors)
                0x0000000000000270                . = ALIGN (0x4)
 *(.fini)
 .fini          0x0000000000000270        0x4 c:/program files/microchip/xc32/v4.60/bin/bin/../../lib/gcc/pic32c/8.3.1/thumb/v7e-m+fp/hard/crti.o
                0x0000000000000270                _fini
 .fini          0x0000000000000274        0x8 c:/program files/microchip/xc32/v4.60/bin/bin/../../lib/gcc/pic32c/8.3.1/thumb/v7e-m+fp/hard/crtn.o
                0x000000000000027c                . = ALIGN (0x4)
                0x000000000000027c                __fini_array_start = .
 *(.fini_array)
 .fini_array    0x000000000000027c        0x4 c:/program files/microchip/xc32/v4.60/bin/bin/../../lib/gcc/pic32c/8.3.1/thumb/v7e-m+fp/hard/crtbegin.o
 *(SORT_BY_NAME(.fini_array.*))
                0x0000000000000280                __fini_array_end = .
 *crtbegin.o(.dtors)
 *(EXCLUDE_FILE(*crtend.o) .dtors)
 *(SORT_BY_NAME(.dtors.*))
 *crtend.o(.dtors)
                0x0000000000000280                . = ALIGN (0x4)
                0x0000000000000280                _efixed = .
                [!provide]                        PROVIDE (__exidx_start = .)

.ARM.exidx      0x0000000000000280        0x8
 *(.ARM.exidx* .gnu.linkonce.armexidx.*)
 .ARM.exidx     0x0000000000000280        0x8 c:/program files/microchip/xc32/v4.60/bin/bin/../../lib/gcc/pic32c/8.3.1/thumb/v7e-m+fp/hard\libgcc.a(_udivmoddi4.o)
                [!provide]                        PROVIDE (__exidx_end = .)
                0x0000000000000288                . = ALIGN (0x4)
                0x0000000000000288                _etext = .

.bss            0x0000000020000000        0x0
                0x0000000020000000                . = ALIGN (0x4)
                0x0000000020000000                __bss_start__ = .
                0x0000000020000000                _sbss = .
                0x0000000020000000                _szero = .
 *(COMMON)
                0x0000000020000000                . = ALIGN (0x4)
                0x0000000020000000                __bss_end__ = .
                0x0000000020000000                _ebss = .
                0x0000000020000000                _ezero = .
                0x0000000020000000                . = ALIGN (0x4)
                0x0000000020000000                _end = .
                0x000000002003ffff                _ram_end_ = ((ORIGIN (ram) + LENGTH (ram)) - 0x1)

.bkupram_bss
 *(.bkupram_bss .bkupram_bss.*)
 *(.pbss .pbss.*)
                0x0000000000000001                __ICD2RAM = 0x1
                0x0000000000000001                __MPLAB_DEBUG = 0x1
                0x0000000000000001                __DEBUG = 0x1
                0x0000000000000200                _min_heap_size = 0x200
START GROUP
LOAD c:/program files/microchip/xc32/v4.60/bin/bin/../../lib/gcc/pic32c/8.3.1/../../../../pic32c/lib/thumb/v7e-m+fp/hard\libpic32c.a
LOAD c:/program files/microchip/xc32/v4.60/bin/bin/../../lib/gcc/pic32c/8.3.1/../../../../pic32c/lib/thumb/v7e-m+fp/hard\libc-size-musl.a
LOAD c:/program files/microchip/xc32/v4.60/bin/bin/../../lib/gcc/pic32c/8.3.1/../../../../pic32c/lib/thumb/v7e-m+fp/hard\liblmalloc-musl.a
LOAD c:/program files/microchip/xc32/v4.60/bin/bin/../../lib/gcc/pic32c/8.3.1/../../../../pic32c/lib/thumb/v7e-m+fp/hard\libm-fast-emfloat.a
LOAD c:/program files/microchip/xc32/v4.60/bin/bin/../../lib/gcc/pic32c/8.3.1/../../../../pic32c/lib/thumb/v7e-m+fp/hard\libm-musl.a
LOAD c:/program files/microchip/xc32/v4.60/bin/bin/../../lib/gcc/pic32c/8.3.1/../../../../pic32c/lib/thumb/v7e-m+fp/hard\libg-musl.a
LOAD c:/program files/microchip/xc32/v4.60/bin/bin/../../lib/gcc/pic32c/8.3.1/../../../../pic32c/lib/thumb/v7e-m+fp/hard\libc-musl.a
LOAD c:/program files/microchip/xc32/v4.60/bin/bin/../../lib/gcc/pic32c/8.3.1/../../../../pic32c/lib/thumb/v7e-m+fp/hard\libm-fast-emfloat.a
LOAD c:/program files/microchip/xc32/v4.60/bin/bin/../../lib/gcc/pic32c/8.3.1/../../../../pic32c/lib/thumb/v7e-m+fp/hard\libm-musl.a
LOAD c:/program files/microchip/xc32/v4.60/bin/bin/../../lib/gcc/pic32c/8.3.1/thumb/v7e-m+fp/hard\libgcc.a
END GROUP
LOAD c:/program files/microchip/xc32/v4.60/bin/bin/../../lib/gcc/pic32c/8.3.1/thumb/v7e-m+fp/hard/crtend.o
LOAD c:/program files/microchip/xc32/v4.60/bin/bin/../../lib/gcc/pic32c/8.3.1/thumb/v7e-m+fp/hard/crtn.o
OUTPUT(dist/default/debug/CR-Proj.debug.elf elf32-littlearm)
LOAD data_init
LOAD stack

.ARM.attributes
                0x0000000000000000       0x34
 .ARM.attributes
                0x0000000000000000       0x1e c:/program files/microchip/xc32/v4.60/bin/bin/../../lib/gcc/pic32c/8.3.1/thumb/v7e-m+fp/hard/crti.o
 .ARM.attributes
                0x000000000000001e       0x34 c:/program files/microchip/xc32/v4.60/bin/bin/../../lib/gcc/pic32c/8.3.1/thumb/v7e-m+fp/hard/crtbegin.o
 .ARM.attributes
                0x0000000000000052       0x34 build/default/debug/_ext/1984496892/plib_clock.o
 .ARM.attributes
                0x0000000000000086       0x34 build/default/debug/_ext/1865161661/plib_dmac.o
 .ARM.attributes
                0x00000000000000ba       0x34 build/default/debug/_ext/1986646378/plib_evsys.o
 .ARM.attributes
                0x00000000000000ee       0x34 build/default/debug/_ext/1865468468/plib_nvic.o
 .ARM.attributes
                0x0000000000000122       0x34 build/default/debug/_ext/1593096446/plib_nvmctrl.o
 .ARM.attributes
                0x0000000000000156       0x34 build/default/debug/_ext/1865521619/plib_port.o
 .ARM.attributes
                0x000000000000018a       0x34 build/default/debug/_ext/17022449/plib_sercom1_spi_master.o
 .ARM.attributes
                0x00000000000001be       0x34 build/default/debug/_ext/1827571544/plib_systick.o
 .ARM.attributes
                0x00000000000001f2       0x34 build/default/debug/_ext/60181570/plib_tcc0.o
 .ARM.attributes
                0x0000000000000226       0x34 build/default/debug/_ext/1865643529/plib_trng.o
 .ARM.attributes
                0x000000000000025a       0x34 build/default/debug/_ext/163028504/xc32_monitor.o
 .ARM.attributes
                0x000000000000028e       0x34 build/default/debug/_ext/1171490990/initialization.o
 .ARM.attributes
                0x00000000000002c2       0x34 build/default/debug/_ext/1171490990/interrupts.o
 .ARM.attributes
                0x00000000000002f6       0x34 build/default/debug/_ext/1171490990/exceptions.o
 .ARM.attributes
                0x000000000000032a       0x34 build/default/debug/_ext/1171490990/startup_xc32.o
 .ARM.attributes
                0x000000000000035e       0x34 build/default/debug/_ext/1171490990/freertos_hooks.o
 .ARM.attributes
                0x0000000000000392       0x34 build/default/debug/_ext/246609638/port.o
 .ARM.attributes
                0x00000000000003c6       0x34 build/default/debug/_ext/1665200909/heap_1.o
 .ARM.attributes
                0x00000000000003fa       0x34 build/default/debug/_ext/404212886/list.o
 .ARM.attributes
                0x000000000000042e       0x34 build/default/debug/_ext/404212886/FreeRTOS_tasks.o
 .ARM.attributes
                0x0000000000000462       0x34 build/default/debug/_ext/1360937237/main.o
 .ARM.attributes
                0x0000000000000496       0x34 build/default/debug/_ext/1360937237/neopixel.o
 .ARM.attributes
                0x00000000000004ca       0x34 build/default/debug/_ext/1360937237/actuator.o
 .ARM.attributes
                0x00000000000004fe       0x34 build/default/debug/_ext/504274921/plib_sercom5_usart.o
 .ARM.attributes
                0x0000000000000532       0x34 c:/program files/microchip/xc32/v4.60/bin/bin/../../lib/gcc/pic32c/8.3.1/../../../../pic32c/lib/thumb/v7e-m+fp/hard\libpic32c.a(data_init.o)
 .ARM.attributes
                0x0000000000000566       0x36 c:/program files/microchip/xc32/v4.60/bin/bin/../../lib/gcc/pic32c/8.3.1/../../../../pic32c/lib/thumb/v7e-m+fp/hard\libc-size-musl.a(memcpy.o)
 .ARM.attributes
                0x000000000000059c       0x36 c:/program files/microchip/xc32/v4.60/bin/bin/../../lib/gcc/pic32c/8.3.1/../../../../pic32c/lib/thumb/v7e-m+fp/hard\libc-size-musl.a(memset.o)
 .ARM.attributes
                0x00000000000005d2       0x36 c:/program files/microchip/xc32/v4.60/bin/bin/../../lib/gcc/pic32c/8.3.1/../../../../pic32c/lib/thumb/v7e-m+fp/hard\libg-musl.a(__libc_start_main.o)
 .ARM.attributes
                0x0000000000000608       0x34 c:/program files/microchip/xc32/v4.60/bin/bin/../../lib/gcc/pic32c/8.3.1/../../../../pic32c/lib/thumb/v7e-m+fp/hard\libg-musl.a(libc.o)
 .ARM.attributes
                0x000000000000063c       0x36 c:/program files/microchip/xc32/v4.60/bin/bin/../../lib/gcc/pic32c/8.3.1/../../../../pic32c/lib/thumb/v7e-m+fp/hard\libg-musl.a(__sio_printf_nu.o)
 .ARM.attributes
                0x0000000000000672       0x36 c:/program files/microchip/xc32/v4.60/bin/bin/../../lib/gcc/pic32c/8.3.1/../../../../pic32c/lib/thumb/v7e-m+fp/hard\libg-musl.a(__fmt_u.o)
 .ARM.attributes
                0x00000000000006a8       0x36 c:/program files/microchip/xc32/v4.60/bin/bin/../../lib/gcc/pic32c/8.3.1/../../../../pic32c/lib/thumb/v7e-m+fp/hard\libg-musl.a(__pop_int.o)
 .ARM.attributes
                0x00000000000006de       0x36 c:/program files/microchip/xc32/v4.60/bin/bin/../../lib/gcc/pic32c/8.3.1/../../../../pic32c/lib/thumb/v7e-m+fp/hard\libg-musl.a(__pop_ptr.o)
 .ARM.attributes
                0x0000000000000714       0x36 c:/program files/microchip/xc32/v4.60/bin/bin/../../lib/gcc/pic32c/8.3.1/../../../../pic32c/lib/thumb/v7e-m+fp/hard\libg-musl.a(__printf_core.o)
 .ARM.attributes
                0x000000000000074a       0x36 c:/program files/microchip/xc32/v4.60/bin/bin/../../lib/gcc/pic32c/8.3.1/../../../../pic32c/lib/thumb/v7e-m+fp/hard\libg-musl.a(stdin.o)
 .ARM.attributes
                0x0000000000000780       0x36 c:/program files/microchip/xc32/v4.60/bin/bin/../../lib/gcc/pic32c/8.3.1/../../../../pic32c/lib/thumb/v7e-m+fp/hard\libg-musl.a(stdout.o)
 .ARM.attributes
                0x00000000000007b6       0x36 c:/program files/microchip/xc32/v4.60/bin/bin/../../lib/gcc/pic32c/8.3.1/../../../../pic32c/lib/thumb/v7e-m+fp/hard\libg-musl.a(puts.o)
 .ARM.attributes
                0x00000000000007ec       0x36 c:/program files/microchip/xc32/v4.60/bin/bin/../../lib/gcc/pic32c/8.3.1/../../../../pic32c/lib/thumb/v7e-m+fp/hard\libg-musl.a(setbuf.o)
 .ARM.attributes
                0x0000000000000822       0x36 c:/program files/microchip/xc32/v4.60/bin/bin/../../lib/gcc/pic32c/8.3.1/../../../../pic32c/lib/thumb/v7e-m+fp/hard\libg-musl.a(atoi.o)
 .ARM.attributes
                0x0000000000000858       0x36 c:/program files/microchip/xc32/v4.60/bin/bin/../../lib/gcc/pic32c/8.3.1/../../../../pic32c/lib/thumb/v7e-m+fp/hard\libg-musl.a(tolower.o)
 .ARM.attributes
                0x000000000000088e       0x34 c:/program files/microchip/xc32/v4.60/bin/bin/../../lib/gcc/pic32c/8.3.1/../../../../pic32c/lib/thumb/v7e-m+fp/hard\libg-musl.a(__environ.o)
 .ARM.attributes
                0x00000000000008c2       0x34 c:/program files/microchip/xc32/v4.60/bin/bin/../../lib/gcc/pic32c/8.3.1/../../../../pic32c/lib/thumb/v7e-m+fp/hard\libg-musl.a(__errno_location.o)
 .ARM.attributes
                0x00000000000008f6       0x36 c:/program files/microchip/xc32/v4.60/bin/bin/../../lib/gcc/pic32c/8.3.1/../../../../pic32c/lib/thumb/v7e-m+fp/hard\libg-musl.a(__int_vfprintf.o)
 .ARM.attributes
                0x000000000000092c       0x36 c:/program files/microchip/xc32/v4.60/bin/bin/../../lib/gcc/pic32c/8.3.1/../../../../pic32c/lib/thumb/v7e-m+fp/hard\libg-musl.a(fputs.o)
 .ARM.attributes
                0x0000000000000962       0x36 c:/program files/microchip/xc32/v4.60/bin/bin/../../lib/gcc/pic32c/8.3.1/../../../../pic32c/lib/thumb/v7e-m+fp/hard\libg-musl.a(__cvt_u.o)
 .ARM.attributes
                0x0000000000000998       0x36 c:/program files/microchip/xc32/v4.60/bin/bin/../../lib/gcc/pic32c/8.3.1/../../../../pic32c/lib/thumb/v7e-m+fp/hard\libg-musl.a(__pop_float.o)
 .ARM.attributes
                0x00000000000009ce       0x36 c:/program files/microchip/xc32/v4.60/bin/bin/../../lib/gcc/pic32c/8.3.1/../../../../pic32c/lib/thumb/v7e-m+fp/hard\libg-musl.a(__stdio_read.o)
 .ARM.attributes
                0x0000000000000a04       0x36 c:/program files/microchip/xc32/v4.60/bin/bin/../../lib/gcc/pic32c/8.3.1/../../../../pic32c/lib/thumb/v7e-m+fp/hard\libg-musl.a(__towrite_rw.o)
 .ARM.attributes
                0x0000000000000a3a       0x36 c:/program files/microchip/xc32/v4.60/bin/bin/../../lib/gcc/pic32c/8.3.1/../../../../pic32c/lib/thumb/v7e-m+fp/hard\libg-musl.a(fwrite.o)
 .ARM.attributes
                0x0000000000000a70       0x36 c:/program files/microchip/xc32/v4.60/bin/bin/../../lib/gcc/pic32c/8.3.1/../../../../pic32c/lib/thumb/v7e-m+fp/hard\libg-musl.a(putc.o)
 .ARM.attributes
                0x0000000000000aa6       0x36 c:/program files/microchip/xc32/v4.60/bin/bin/../../lib/gcc/pic32c/8.3.1/../../../../pic32c/lib/thumb/v7e-m+fp/hard\libg-musl.a(setvbuf.o)
 .ARM.attributes
                0x0000000000000adc       0x36 c:/program files/microchip/xc32/v4.60/bin/bin/../../lib/gcc/pic32c/8.3.1/../../../../pic32c/lib/thumb/v7e-m+fp/hard\libg-musl.a(readv.o)
 .ARM.attributes
                0x0000000000000b12       0x36 c:/program files/microchip/xc32/v4.60/bin/bin/../../lib/gcc/pic32c/8.3.1/../../../../pic32c/lib/thumb/v7e-m+fp/hard\libg-musl.a(__init_stdio.o)
 .ARM.attributes
                0x0000000000000b48       0x36 c:/program files/microchip/xc32/v4.60/bin/bin/../../lib/gcc/pic32c/8.3.1/../../../../pic32c/lib/thumb/v7e-m+fp/hard\libg-musl.a(__out.o)
 .ARM.attributes
                0x0000000000000b7e       0x36 c:/program files/microchip/xc32/v4.60/bin/bin/../../lib/gcc/pic32c/8.3.1/../../../../pic32c/lib/thumb/v7e-m+fp/hard\libg-musl.a(__putc.o)
 .ARM.attributes
                0x0000000000000bb4       0x36 c:/program files/microchip/xc32/v4.60/bin/bin/../../lib/gcc/pic32c/8.3.1/../../../../pic32c/lib/thumb/v7e-m+fp/hard\libg-musl.a(__stderr.o)
 .ARM.attributes
                0x0000000000000bea       0x36 c:/program files/microchip/xc32/v4.60/bin/bin/../../lib/gcc/pic32c/8.3.1/../../../../pic32c/lib/thumb/v7e-m+fp/hard\libg-musl.a(__stdio_close.o)
 .ARM.attributes
                0x0000000000000c20       0x36 c:/program files/microchip/xc32/v4.60/bin/bin/../../lib/gcc/pic32c/8.3.1/../../../../pic32c/lib/thumb/v7e-m+fp/hard\libg-musl.a(__stdio_write.o)
 .ARM.attributes
                0x0000000000000c56       0x36 c:/program files/microchip/xc32/v4.60/bin/bin/../../lib/gcc/pic32c/8.3.1/../../../../pic32c/lib/thumb/v7e-m+fp/hard\libg-musl.a(__stdout.o)
 .ARM.attributes
                0x0000000000000c8c       0x36 c:/program files/microchip/xc32/v4.60/bin/bin/../../lib/gcc/pic32c/8.3.1/../../../../pic32c/lib/thumb/v7e-m+fp/hard\libg-musl.a(__towrite.o)
 .ARM.attributes
                0x0000000000000cc2       0x36 c:/program files/microchip/xc32/v4.60/bin/bin/../../lib/gcc/pic32c/8.3.1/../../../../pic32c/lib/thumb/v7e-m+fp/hard\libg-musl.a(writev.o)
 .ARM.attributes
                0x0000000000000cf8       0x36 c:/program files/microchip/xc32/v4.60/bin/bin/../../lib/gcc/pic32c/8.3.1/../../../../pic32c/lib/thumb/v7e-m+fp/hard\libg-musl.a(__overflow.o)
 .ARM.attributes
                0x0000000000000d2e       0x36 c:/program files/microchip/xc32/v4.60/bin/bin/../../lib/gcc/pic32c/8.3.1/../../../../pic32c/lib/thumb/v7e-m+fp/hard\libg-musl.a(__fwrite.o)
 .ARM.attributes
                0x0000000000000d64       0x1e c:/program files/microchip/xc32/v4.60/bin/bin/../../lib/gcc/pic32c/8.3.1/thumb/v7e-m+fp/hard\libgcc.a(_aeabi_uldivmod.o)
 .ARM.attributes
                0x0000000000000d82       0x34 c:/program files/microchip/xc32/v4.60/bin/bin/../../lib/gcc/pic32c/8.3.1/thumb/v7e-m+fp/hard\libgcc.a(_udivmoddi4.o)
 .ARM.attributes
                0x0000000000000db6       0x1e c:/program files/microchip/xc32/v4.60/bin/bin/../../lib/gcc/pic32c/8.3.1/thumb/v7e-m+fp/hard\libgcc.a(_dvmd_tls.o)
 .ARM.attributes
                0x0000000000000dd4       0x34 c:/program files/microchip/xc32/v4.60/bin/bin/../../lib/gcc/pic32c/8.3.1/../../../../pic32c/lib/thumb/v7e-m+fp/hard\libpic32c.a(close.o)
 .ARM.attributes
                0x0000000000000e08       0x34 c:/program files/microchip/xc32/v4.60/bin/bin/../../lib/gcc/pic32c/8.3.1/../../../../pic32c/lib/thumb/v7e-m+fp/hard\libpic32c.a(lseek.o)
 .ARM.attributes
                0x0000000000000e3c       0x36 c:/program files/microchip/xc32/v4.60/bin/bin/../../lib/gcc/pic32c/8.3.1/../../../../pic32c/lib/thumb/v7e-m+fp/hard\libc-size-musl.a(strlen.o)
 .ARM.attributes
                0x0000000000000e72       0x36 c:/program files/microchip/xc32/v4.60/bin/bin/../../lib/gcc/pic32c/8.3.1/../../../../pic32c/lib/thumb/v7e-m+fp/hard\liblmalloc-musl.a(lite_malloc.o)
 .ARM.attributes
                0x0000000000000ea8       0x36 c:/program files/microchip/xc32/v4.60/bin/bin/../../lib/gcc/pic32c/8.3.1/../../../../pic32c/lib/thumb/v7e-m+fp/hard\liblmalloc-musl.a(lite_free.o)
 .ARM.attributes
                0x0000000000000ede       0x36 c:/program files/microchip/xc32/v4.60/bin/bin/../../lib/gcc/pic32c/8.3.1/../../../../pic32c/lib/thumb/v7e-m+fp/hard\libg-musl.a(expand_heap.o)
 .ARM.attributes
                0x0000000000000f14       0x34 c:/program files/microchip/xc32/v4.60/bin/bin/../../lib/gcc/pic32c/8.3.1/../../../../pic32c/lib/thumb/v7e-m+fp/hard\libpic32c.a(sbrk.o)
 .ARM.attributes
                0x0000000000000f48       0x1e c:/program files/microchip/xc32/v4.60/bin/bin/../../lib/gcc/pic32c/8.3.1/thumb/v7e-m+fp/hard/crtn.o
 .ARM.attributes
                0x0000000000000f66       0x34 c:/program files/microchip/xc32/v4.60/bin/bin/../../lib/gcc/pic32c/8.3.1/../../../../pic32c/lib/thumb/v7e-m+fp/hard\libpic32c.a(pic32_data_init_clear.o)
 .ARM.attributes
                0x0000000000000f9a       0x34 c:/program files/microchip/xc32/v4.60/bin/bin/../../lib/gcc/pic32c/8.3.1/../../../../pic32c/lib/thumb/v7e-m+fp/hard\libpic32c.a(pic32_data_init_copy.o)

.comment        0x0000000000000000       0x2b
 .comment       0x0000000000000000       0x2b c:/program files/microchip/xc32/v4.60/bin/bin/../../lib/gcc/pic32c/8.3.1/thumb/v7e-m+fp/hard/crtbegin.o
                                         0x2c (size before relaxing)
 .comment       0x000000000000002b       0x2c build/default/debug/_ext/1984496892/plib_clock.o
 .comment       0x000000000000002b       0x2c build/default/debug/_ext/1865161661/plib_dmac.o
 .comment       0x000000000000002b       0x2c build/default/debug/_ext/1986646378/plib_evsys.o
 .comment       0x000000000000002b       0x2c build/default/debug/_ext/1865468468/plib_nvic.o
 .comment       0x000000000000002b       0x2c build/default/debug/_ext/1593096446/plib_nvmctrl.o
 .comment       0x000000000000002b       0x2c build/default/debug/_ext/1865521619/plib_port.o
 .comment       0x000000000000002b       0x2c build/default/debug/_ext/17022449/plib_sercom1_spi_master.o
 .comment       0x000000000000002b       0x2c build/default/debug/_ext/1827571544/plib_systick.o
 .comment       0x000000000000002b       0x2c build/default/debug/_ext/60181570/plib_tcc0.o
 .comment       0x000000000000002b       0x2c build/default/debug/_ext/1865643529/plib_trng.o
 .comment       0x000000000000002b       0x2c build/default/debug/_ext/163028504/xc32_monitor.o
 .comment       0x000000000000002b       0x2c build/default/debug/_ext/1171490990/initialization.o
 .comment       0x000000000000002b       0x2c build/default/debug/_ext/1171490990/interrupts.o
 .comment       0x000000000000002b       0x2c build/default/debug/_ext/1171490990/exceptions.o
 .comment       0x000000000000002b       0x2c build/default/debug/_ext/1171490990/startup_xc32.o
 .comment       0x000000000000002b       0x2c build/default/debug/_ext/1171490990/freertos_hooks.o
 .comment       0x000000000000002b       0x2c build/default/debug/_ext/246609638/port.o
 .comment       0x000000000000002b       0x2c build/default/debug/_ext/1665200909/heap_1.o
 .comment       0x000000000000002b       0x2c build/default/debug/_ext/404212886/list.o
 .comment       0x000000000000002b       0x2c build/default/debug/_ext/404212886/FreeRTOS_tasks.o
 .comment       0x000000000000002b       0x2c build/default/debug/_ext/1360937237/main.o
 .comment       0x000000000000002b       0x2c build/default/debug/_ext/1360937237/neopixel.o
 .comment       0x000000000000002b       0x2c build/default/debug/_ext/1360937237/actuator.o
 .comment       0x000000000000002b       0x2c build/default/debug/_ext/504274921/plib_sercom5_usart.o
 .comment       0x000000000000002b       0x2c c:/program files/microchip/xc32/v4.60/bin/bin/../../lib/gcc/pic32c/8.3.1/../../../../pic32c/lib/thumb/v7e-m+fp/hard\libpic32c.a(data_init.o)
 .comment       0x000000000000002b       0x2c c:/program files/microchip/xc32/v4.60/bin/bin/../../lib/gcc/pic32c/8.3.1/../../../../pic32c/lib/thumb/v7e-m+fp/hard\libc-size-musl.a(memcpy.o)
 .comment       0x000000000000002b       0x2c c:/program files/microchip/xc32/v4.60/bin/bin/../../lib/gcc/pic32c/8.3.1/../../../../pic32c/lib/thumb/v7e-m+fp/hard\libc-size-musl.a(memset.o)
 .comment       0x000000000000002b       0x2c c:/program files/microchip/xc32/v4.60/bin/bin/../../lib/gcc/pic32c/8.3.1/../../../../pic32c/lib/thumb/v7e-m+fp/hard\libg-musl.a(__libc_start_main.o)
 .comment       0x000000000000002b       0x2c c:/program files/microchip/xc32/v4.60/bin/bin/../../lib/gcc/pic32c/8.3.1/../../../../pic32c/lib/thumb/v7e-m+fp/hard\libg-musl.a(libc.o)
 .comment       0x000000000000002b       0x2c c:/program files/microchip/xc32/v4.60/bin/bin/../../lib/gcc/pic32c/8.3.1/../../../../pic32c/lib/thumb/v7e-m+fp/hard\libg-musl.a(__sio_printf_nu.o)
 .comment       0x000000000000002b       0x2c c:/program files/microchip/xc32/v4.60/bin/bin/../../lib/gcc/pic32c/8.3.1/../../../../pic32c/lib/thumb/v7e-m+fp/hard\libg-musl.a(__fmt_u.o)
 .comment       0x000000000000002b       0x2c c:/program files/microchip/xc32/v4.60/bin/bin/../../lib/gcc/pic32c/8.3.1/../../../../pic32c/lib/thumb/v7e-m+fp/hard\libg-musl.a(__pop_int.o)
 .comment       0x000000000000002b       0x2c c:/program files/microchip/xc32/v4.60/bin/bin/../../lib/gcc/pic32c/8.3.1/../../../../pic32c/lib/thumb/v7e-m+fp/hard\libg-musl.a(__pop_ptr.o)
 .comment       0x000000000000002b       0x2c c:/program files/microchip/xc32/v4.60/bin/bin/../../lib/gcc/pic32c/8.3.1/../../../../pic32c/lib/thumb/v7e-m+fp/hard\libg-musl.a(__printf_core.o)
 .comment       0x000000000000002b       0x2c c:/program files/microchip/xc32/v4.60/bin/bin/../../lib/gcc/pic32c/8.3.1/../../../../pic32c/lib/thumb/v7e-m+fp/hard\libg-musl.a(stdin.o)
 .comment       0x000000000000002b       0x2c c:/program files/microchip/xc32/v4.60/bin/bin/../../lib/gcc/pic32c/8.3.1/../../../../pic32c/lib/thumb/v7e-m+fp/hard\libg-musl.a(stdout.o)
 .comment       0x000000000000002b       0x2c c:/program files/microchip/xc32/v4.60/bin/bin/../../lib/gcc/pic32c/8.3.1/../../../../pic32c/lib/thumb/v7e-m+fp/hard\libg-musl.a(puts.o)
 .comment       0x000000000000002b       0x2c c:/program files/microchip/xc32/v4.60/bin/bin/../../lib/gcc/pic32c/8.3.1/../../../../pic32c/lib/thumb/v7e-m+fp/hard\libg-musl.a(setbuf.o)
 .comment       0x000000000000002b       0x2c c:/program files/microchip/xc32/v4.60/bin/bin/../../lib/gcc/pic32c/8.3.1/../../../../pic32c/lib/thumb/v7e-m+fp/hard\libg-musl.a(atoi.o)
 .comment       0x000000000000002b       0x2c c:/program files/microchip/xc32/v4.60/bin/bin/../../lib/gcc/pic32c/8.3.1/../../../../pic32c/lib/thumb/v7e-m+fp/hard\libg-musl.a(tolower.o)
 .comment       0x000000000000002b       0x2c c:/program files/microchip/xc32/v4.60/bin/bin/../../lib/gcc/pic32c/8.3.1/../../../../pic32c/lib/thumb/v7e-m+fp/hard\libg-musl.a(__environ.o)
 .comment       0x000000000000002b       0x2c c:/program files/microchip/xc32/v4.60/bin/bin/../../lib/gcc/pic32c/8.3.1/../../../../pic32c/lib/thumb/v7e-m+fp/hard\libg-musl.a(__errno_location.o)
 .comment       0x000000000000002b       0x2c c:/program files/microchip/xc32/v4.60/bin/bin/../../lib/gcc/pic32c/8.3.1/../../../../pic32c/lib/thumb/v7e-m+fp/hard\libg-musl.a(__int_vfprintf.o)
 .comment       0x000000000000002b       0x2c c:/program files/microchip/xc32/v4.60/bin/bin/../../lib/gcc/pic32c/8.3.1/../../../../pic32c/lib/thumb/v7e-m+fp/hard\libg-musl.a(fputs.o)
 .comment       0x000000000000002b       0x2c c:/program files/microchip/xc32/v4.60/bin/bin/../../lib/gcc/pic32c/8.3.1/../../../../pic32c/lib/thumb/v7e-m+fp/hard\libg-musl.a(__cvt_u.o)
 .comment       0x000000000000002b       0x2c c:/program files/microchip/xc32/v4.60/bin/bin/../../lib/gcc/pic32c/8.3.1/../../../../pic32c/lib/thumb/v7e-m+fp/hard\libg-musl.a(__pop_float.o)
 .comment       0x000000000000002b       0x2c c:/program files/microchip/xc32/v4.60/bin/bin/../../lib/gcc/pic32c/8.3.1/../../../../pic32c/lib/thumb/v7e-m+fp/hard\libg-musl.a(__stdio_read.o)
 .comment       0x000000000000002b       0x2c c:/program files/microchip/xc32/v4.60/bin/bin/../../lib/gcc/pic32c/8.3.1/../../../../pic32c/lib/thumb/v7e-m+fp/hard\libg-musl.a(__towrite_rw.o)
 .comment       0x000000000000002b       0x2c c:/program files/microchip/xc32/v4.60/bin/bin/../../lib/gcc/pic32c/8.3.1/../../../../pic32c/lib/thumb/v7e-m+fp/hard\libg-musl.a(fwrite.o)
 .comment       0x000000000000002b       0x2c c:/program files/microchip/xc32/v4.60/bin/bin/../../lib/gcc/pic32c/8.3.1/../../../../pic32c/lib/thumb/v7e-m+fp/hard\libg-musl.a(putc.o)
 .comment       0x000000000000002b       0x2c c:/program files/microchip/xc32/v4.60/bin/bin/../../lib/gcc/pic32c/8.3.1/../../../../pic32c/lib/thumb/v7e-m+fp/hard\libg-musl.a(setvbuf.o)
 .comment       0x000000000000002b       0x2c c:/program files/microchip/xc32/v4.60/bin/bin/../../lib/gcc/pic32c/8.3.1/../../../../pic32c/lib/thumb/v7e-m+fp/hard\libg-musl.a(readv.o)
 .comment       0x000000000000002b       0x2c c:/program files/microchip/xc32/v4.60/bin/bin/../../lib/gcc/pic32c/8.3.1/../../../../pic32c/lib/thumb/v7e-m+fp/hard\libg-musl.a(__init_stdio.o)
 .comment       0x000000000000002b       0x2c c:/program files/microchip/xc32/v4.60/bin/bin/../../lib/gcc/pic32c/8.3.1/../../../../pic32c/lib/thumb/v7e-m+fp/hard\libg-musl.a(__out.o)
 .comment       0x000000000000002b       0x2c c:/program files/microchip/xc32/v4.60/bin/bin/../../lib/gcc/pic32c/8.3.1/../../../../pic32c/lib/thumb/v7e-m+fp/hard\libg-musl.a(__putc.o)
 .comment       0x000000000000002b       0x2c c:/program files/microchip/xc32/v4.60/bin/bin/../../lib/gcc/pic32c/8.3.1/../../../../pic32c/lib/thumb/v7e-m+fp/hard\libg-musl.a(__stderr.o)
 .comment       0x000000000000002b       0x2c c:/program files/microchip/xc32/v4.60/bin/bin/../../lib/gcc/pic32c/8.3.1/../../../../pic32c/lib/thumb/v7e-m+fp/hard\libg-musl.a(__stdio_close.o)
 .comment       0x000000000000002b       0x2c c:/program files/microchip/xc32/v4.60/bin/bin/../../lib/gcc/pic32c/8.3.1/../../../../pic32c/lib/thumb/v7e-m+fp/hard\libg-musl.a(__stdio_write.o)
 .comment       0x000000000000002b       0x2c c:/program files/microchip/xc32/v4.60/bin/bin/../../lib/gcc/pic32c/8.3.1/../../../../pic32c/lib/thumb/v7e-m+fp/hard\libg-musl.a(__stdout.o)
 .comment       0x000000000000002b       0x2c c:/program files/microchip/xc32/v4.60/bin/bin/../../lib/gcc/pic32c/8.3.1/../../../../pic32c/lib/thumb/v7e-m+fp/hard\libg-musl.a(__towrite.o)
 .comment       0x000000000000002b       0x2c c:/program files/microchip/xc32/v4.60/bin/bin/../../lib/gcc/pic32c/8.3.1/../../../../pic32c/lib/thumb/v7e-m+fp/hard\libg-musl.a(writev.o)
 .comment       0x000000000000002b       0x2c c:/program files/microchip/xc32/v4.60/bin/bin/../../lib/gcc/pic32c/8.3.1/../../../../pic32c/lib/thumb/v7e-m+fp/hard\libg-musl.a(__overflow.o)
 .comment       0x000000000000002b       0x2c c:/program files/microchip/xc32/v4.60/bin/bin/../../lib/gcc/pic32c/8.3.1/../../../../pic32c/lib/thumb/v7e-m+fp/hard\libg-musl.a(__fwrite.o)
 .comment       0x000000000000002b       0x2c c:/program files/microchip/xc32/v4.60/bin/bin/../../lib/gcc/pic32c/8.3.1/thumb/v7e-m+fp/hard\libgcc.a(_udivmoddi4.o)
 .comment       0x000000000000002b       0x2c c:/program files/microchip/xc32/v4.60/bin/bin/../../lib/gcc/pic32c/8.3.1/../../../../pic32c/lib/thumb/v7e-m+fp/hard\libpic32c.a(close.o)
 .comment       0x000000000000002b       0x2c c:/program files/microchip/xc32/v4.60/bin/bin/../../lib/gcc/pic32c/8.3.1/../../../../pic32c/lib/thumb/v7e-m+fp/hard\libpic32c.a(lseek.o)
 .comment       0x000000000000002b       0x2c c:/program files/microchip/xc32/v4.60/bin/bin/../../lib/gcc/pic32c/8.3.1/../../../../pic32c/lib/thumb/v7e-m+fp/hard\libc-size-musl.a(strlen.o)
 .comment       0x000000000000002b       0x2c c:/program files/microchip/xc32/v4.60/bin/bin/../../lib/gcc/pic32c/8.3.1/../../../../pic32c/lib/thumb/v7e-m+fp/hard\liblmalloc-musl.a(lite_malloc.o)
 .comment       0x000000000000002b       0x2c c:/program files/microchip/xc32/v4.60/bin/bin/../../lib/gcc/pic32c/8.3.1/../../../../pic32c/lib/thumb/v7e-m+fp/hard\liblmalloc-musl.a(lite_free.o)
 .comment       0x000000000000002b       0x2c c:/program files/microchip/xc32/v4.60/bin/bin/../../lib/gcc/pic32c/8.3.1/../../../../pic32c/lib/thumb/v7e-m+fp/hard\libg-musl.a(expand_heap.o)
 .comment       0x000000000000002b       0x2c c:/program files/microchip/xc32/v4.60/bin/bin/../../lib/gcc/pic32c/8.3.1/../../../../pic32c/lib/thumb/v7e-m+fp/hard\libpic32c.a(sbrk.o)
 .comment       0x000000000000002b       0x2c c:/program files/microchip/xc32/v4.60/bin/bin/../../lib/gcc/pic32c/8.3.1/../../../../pic32c/lib/thumb/v7e-m+fp/hard\libpic32c.a(pic32_data_init_clear.o)
 .comment       0x000000000000002b       0x2c c:/program files/microchip/xc32/v4.60/bin/bin/../../lib/gcc/pic32c/8.3.1/../../../../pic32c/lib/thumb/v7e-m+fp/hard\libpic32c.a(pic32_data_init_copy.o)

.debug_info     0x0000000000000000    0x131af
 .debug_info    0x0000000000000000      0x677 build/default/debug/_ext/1984496892/plib_clock.o
 .debug_info    0x0000000000000677      0xb9c build/default/debug/_ext/1865161661/plib_dmac.o
 .debug_info    0x0000000000001213      0x394 build/default/debug/_ext/1986646378/plib_evsys.o
 .debug_info    0x00000000000015a7      0xbdf build/default/debug/_ext/1865468468/plib_nvic.o
 .debug_info    0x0000000000002186      0x8e5 build/default/debug/_ext/1593096446/plib_nvmctrl.o
 .debug_info    0x0000000000002a6b      0x6fc build/default/debug/_ext/1865521619/plib_port.o
 .debug_info    0x0000000000003167      0xd75 build/default/debug/_ext/17022449/plib_sercom1_spi_master.o
 .debug_info    0x0000000000003edc      0x551 build/default/debug/_ext/1827571544/plib_systick.o
 .debug_info    0x000000000000442d      0x51d build/default/debug/_ext/60181570/plib_tcc0.o
 .debug_info    0x000000000000494a      0x1b8 build/default/debug/_ext/1865643529/plib_trng.o
 .debug_info    0x0000000000004b02      0x1cf build/default/debug/_ext/163028504/xc32_monitor.o
 .debug_info    0x0000000000004cd1      0x250 build/default/debug/_ext/1171490990/initialization.o
 .debug_info    0x0000000000004f21      0xa73 build/default/debug/_ext/1171490990/interrupts.o
 .debug_info    0x0000000000005994      0x116 build/default/debug/_ext/1171490990/exceptions.o
 .debug_info    0x0000000000005aaa      0x55b build/default/debug/_ext/1171490990/startup_xc32.o
 .debug_info    0x0000000000006005      0x223 build/default/debug/_ext/1171490990/freertos_hooks.o
 .debug_info    0x0000000000006228      0x3c7 build/default/debug/_ext/246609638/port.o
 .debug_info    0x00000000000065ef      0x238 build/default/debug/_ext/1665200909/heap_1.o
 .debug_info    0x0000000000006827      0x2ff build/default/debug/_ext/404212886/list.o
 .debug_info    0x0000000000006b26     0x2bd9 build/default/debug/_ext/404212886/FreeRTOS_tasks.o
 .debug_info    0x00000000000096ff      0x561 build/default/debug/_ext/1360937237/main.o
 .debug_info    0x0000000000009c60     0x137e build/default/debug/_ext/1360937237/neopixel.o
 .debug_info    0x000000000000afde      0x665 build/default/debug/_ext/1360937237/actuator.o
 .debug_info    0x000000000000b643      0xf6d build/default/debug/_ext/504274921/plib_sercom5_usart.o
 .debug_info    0x000000000000c5b0       0x68 c:/program files/microchip/xc32/v4.60/bin/bin/../../lib/gcc/pic32c/8.3.1/../../../../pic32c/lib/thumb/v7e-m+fp/hard\libpic32c.a(data_init.o)
 .debug_info    0x000000000000c618       0xf3 c:/program files/microchip/xc32/v4.60/bin/bin/../../lib/gcc/pic32c/8.3.1/../../../../pic32c/lib/thumb/v7e-m+fp/hard\libc-size-musl.a(memcpy.o)
 .debug_info    0x000000000000c70b       0xbb c:/program files/microchip/xc32/v4.60/bin/bin/../../lib/gcc/pic32c/8.3.1/../../../../pic32c/lib/thumb/v7e-m+fp/hard\libc-size-musl.a(memset.o)
 .debug_info    0x000000000000c7c6      0x2fb c:/program files/microchip/xc32/v4.60/bin/bin/../../lib/gcc/pic32c/8.3.1/../../../../pic32c/lib/thumb/v7e-m+fp/hard\libg-musl.a(__libc_start_main.o)
 .debug_info    0x000000000000cac1      0x276 c:/program files/microchip/xc32/v4.60/bin/bin/../../lib/gcc/pic32c/8.3.1/../../../../pic32c/lib/thumb/v7e-m+fp/hard\libg-musl.a(libc.o)
 .debug_info    0x000000000000cd37      0x1bb c:/program files/microchip/xc32/v4.60/bin/bin/../../lib/gcc/pic32c/8.3.1/../../../../pic32c/lib/thumb/v7e-m+fp/hard\libg-musl.a(__sio_printf_nu.o)
 .debug_info    0x000000000000cef2      0x301 c:/program files/microchip/xc32/v4.60/bin/bin/../../lib/gcc/pic32c/8.3.1/../../../../pic32c/lib/thumb/v7e-m+fp/hard\libg-musl.a(__fmt_u.o)
 .debug_info    0x000000000000d1f3      0x183 c:/program files/microchip/xc32/v4.60/bin/bin/../../lib/gcc/pic32c/8.3.1/../../../../pic32c/lib/thumb/v7e-m+fp/hard\libg-musl.a(__pop_int.o)
 .debug_info    0x000000000000d376      0x187 c:/program files/microchip/xc32/v4.60/bin/bin/../../lib/gcc/pic32c/8.3.1/../../../../pic32c/lib/thumb/v7e-m+fp/hard\libg-musl.a(__pop_ptr.o)
 .debug_info    0x000000000000d4fd      0xa5d c:/program files/microchip/xc32/v4.60/bin/bin/../../lib/gcc/pic32c/8.3.1/../../../../pic32c/lib/thumb/v7e-m+fp/hard\libg-musl.a(__printf_core.o)
 .debug_info    0x000000000000df5a      0x404 c:/program files/microchip/xc32/v4.60/bin/bin/../../lib/gcc/pic32c/8.3.1/../../../../pic32c/lib/thumb/v7e-m+fp/hard\libg-musl.a(stdin.o)
 .debug_info    0x000000000000e35e      0x1e9 c:/program files/microchip/xc32/v4.60/bin/bin/../../lib/gcc/pic32c/8.3.1/../../../../pic32c/lib/thumb/v7e-m+fp/hard\libg-musl.a(stdout.o)
 .debug_info    0x000000000000e547      0x3ac c:/program files/microchip/xc32/v4.60/bin/bin/../../lib/gcc/pic32c/8.3.1/../../../../pic32c/lib/thumb/v7e-m+fp/hard\libg-musl.a(puts.o)
 .debug_info    0x000000000000e8f3       0xdb c:/program files/microchip/xc32/v4.60/bin/bin/../../lib/gcc/pic32c/8.3.1/../../../../pic32c/lib/thumb/v7e-m+fp/hard\libg-musl.a(setbuf.o)
 .debug_info    0x000000000000e9ce       0xf4 c:/program files/microchip/xc32/v4.60/bin/bin/../../lib/gcc/pic32c/8.3.1/../../../../pic32c/lib/thumb/v7e-m+fp/hard\libg-musl.a(atoi.o)
 .debug_info    0x000000000000eac2      0x12b c:/program files/microchip/xc32/v4.60/bin/bin/../../lib/gcc/pic32c/8.3.1/../../../../pic32c/lib/thumb/v7e-m+fp/hard\libg-musl.a(tolower.o)
 .debug_info    0x000000000000ebed       0x97 c:/program files/microchip/xc32/v4.60/bin/bin/../../lib/gcc/pic32c/8.3.1/../../../../pic32c/lib/thumb/v7e-m+fp/hard\libg-musl.a(__environ.o)
 .debug_info    0x000000000000ec84       0x5b c:/program files/microchip/xc32/v4.60/bin/bin/../../lib/gcc/pic32c/8.3.1/../../../../pic32c/lib/thumb/v7e-m+fp/hard\libg-musl.a(__errno_location.o)
 .debug_info    0x000000000000ecdf      0x1f7 c:/program files/microchip/xc32/v4.60/bin/bin/../../lib/gcc/pic32c/8.3.1/../../../../pic32c/lib/thumb/v7e-m+fp/hard\libg-musl.a(__int_vfprintf.o)
 .debug_info    0x000000000000eed6      0x3b6 c:/program files/microchip/xc32/v4.60/bin/bin/../../lib/gcc/pic32c/8.3.1/../../../../pic32c/lib/thumb/v7e-m+fp/hard\libg-musl.a(fputs.o)
 .debug_info    0x000000000000f28c      0x1d9 c:/program files/microchip/xc32/v4.60/bin/bin/../../lib/gcc/pic32c/8.3.1/../../../../pic32c/lib/thumb/v7e-m+fp/hard\libg-musl.a(__cvt_u.o)
 .debug_info    0x000000000000f465      0x162 c:/program files/microchip/xc32/v4.60/bin/bin/../../lib/gcc/pic32c/8.3.1/../../../../pic32c/lib/thumb/v7e-m+fp/hard\libg-musl.a(__pop_float.o)
 .debug_info    0x000000000000f5c7      0x3ef c:/program files/microchip/xc32/v4.60/bin/bin/../../lib/gcc/pic32c/8.3.1/../../../../pic32c/lib/thumb/v7e-m+fp/hard\libg-musl.a(__stdio_read.o)
 .debug_info    0x000000000000f9b6      0x331 c:/program files/microchip/xc32/v4.60/bin/bin/../../lib/gcc/pic32c/8.3.1/../../../../pic32c/lib/thumb/v7e-m+fp/hard\libg-musl.a(__towrite_rw.o)
 .debug_info    0x000000000000fce7      0x257 c:/program files/microchip/xc32/v4.60/bin/bin/../../lib/gcc/pic32c/8.3.1/../../../../pic32c/lib/thumb/v7e-m+fp/hard\libg-musl.a(fwrite.o)
 .debug_info    0x000000000000ff3e      0x224 c:/program files/microchip/xc32/v4.60/bin/bin/../../lib/gcc/pic32c/8.3.1/../../../../pic32c/lib/thumb/v7e-m+fp/hard\libg-musl.a(putc.o)
 .debug_info    0x0000000000010162      0x2bd c:/program files/microchip/xc32/v4.60/bin/bin/../../lib/gcc/pic32c/8.3.1/../../../../pic32c/lib/thumb/v7e-m+fp/hard\libg-musl.a(setvbuf.o)
 .debug_info    0x000000000001041f      0x146 c:/program files/microchip/xc32/v4.60/bin/bin/../../lib/gcc/pic32c/8.3.1/../../../../pic32c/lib/thumb/v7e-m+fp/hard\libg-musl.a(readv.o)
 .debug_info    0x0000000000010565       0xc3 c:/program files/microchip/xc32/v4.60/bin/bin/../../lib/gcc/pic32c/8.3.1/../../../../pic32c/lib/thumb/v7e-m+fp/hard\libg-musl.a(__init_stdio.o)
 .debug_info    0x0000000000010628      0x2b2 c:/program files/microchip/xc32/v4.60/bin/bin/../../lib/gcc/pic32c/8.3.1/../../../../pic32c/lib/thumb/v7e-m+fp/hard\libg-musl.a(__out.o)
 .debug_info    0x00000000000108da      0x28f c:/program files/microchip/xc32/v4.60/bin/bin/../../lib/gcc/pic32c/8.3.1/../../../../pic32c/lib/thumb/v7e-m+fp/hard\libg-musl.a(__putc.o)
 .debug_info    0x0000000000010b69      0x3a9 c:/program files/microchip/xc32/v4.60/bin/bin/../../lib/gcc/pic32c/8.3.1/../../../../pic32c/lib/thumb/v7e-m+fp/hard\libg-musl.a(__stderr.o)
 .debug_info    0x0000000000010f12      0x3ff c:/program files/microchip/xc32/v4.60/bin/bin/../../lib/gcc/pic32c/8.3.1/../../../../pic32c/lib/thumb/v7e-m+fp/hard\libg-musl.a(__stdio_close.o)
 .debug_info    0x0000000000011311      0x43e c:/program files/microchip/xc32/v4.60/bin/bin/../../lib/gcc/pic32c/8.3.1/../../../../pic32c/lib/thumb/v7e-m+fp/hard\libg-musl.a(__stdio_write.o)
 .debug_info    0x000000000001174f      0x3a9 c:/program files/microchip/xc32/v4.60/bin/bin/../../lib/gcc/pic32c/8.3.1/../../../../pic32c/lib/thumb/v7e-m+fp/hard\libg-musl.a(__stdout.o)
 .debug_info    0x0000000000011af8      0x275 c:/program files/microchip/xc32/v4.60/bin/bin/../../lib/gcc/pic32c/8.3.1/../../../../pic32c/lib/thumb/v7e-m+fp/hard\libg-musl.a(__towrite.o)
 .debug_info    0x0000000000011d6d      0x146 c:/program files/microchip/xc32/v4.60/bin/bin/../../lib/gcc/pic32c/8.3.1/../../../../pic32c/lib/thumb/v7e-m+fp/hard\libg-musl.a(writev.o)
 .debug_info    0x0000000000011eb3      0x388 c:/program files/microchip/xc32/v4.60/bin/bin/../../lib/gcc/pic32c/8.3.1/../../../../pic32c/lib/thumb/v7e-m+fp/hard\libg-musl.a(__overflow.o)
 .debug_info    0x000000000001223b      0x2b9 c:/program files/microchip/xc32/v4.60/bin/bin/../../lib/gcc/pic32c/8.3.1/../../../../pic32c/lib/thumb/v7e-m+fp/hard\libg-musl.a(__fwrite.o)
 .debug_info    0x00000000000124f4       0x26 c:/program files/microchip/xc32/v4.60/bin/bin/../../lib/gcc/pic32c/8.3.1/thumb/v7e-m+fp/hard\libgcc.a(_aeabi_uldivmod.o)
 .debug_info    0x000000000001251a      0x52a c:/program files/microchip/xc32/v4.60/bin/bin/../../lib/gcc/pic32c/8.3.1/thumb/v7e-m+fp/hard\libgcc.a(_udivmoddi4.o)
 .debug_info    0x0000000000012a44       0x26 c:/program files/microchip/xc32/v4.60/bin/bin/../../lib/gcc/pic32c/8.3.1/thumb/v7e-m+fp/hard\libgcc.a(_dvmd_tls.o)
 .debug_info    0x0000000000012a6a       0x3f c:/program files/microchip/xc32/v4.60/bin/bin/../../lib/gcc/pic32c/8.3.1/../../../../pic32c/lib/thumb/v7e-m+fp/hard\libpic32c.a(close.o)
 .debug_info    0x0000000000012aa9       0x3f c:/program files/microchip/xc32/v4.60/bin/bin/../../lib/gcc/pic32c/8.3.1/../../../../pic32c/lib/thumb/v7e-m+fp/hard\libpic32c.a(lseek.o)
 .debug_info    0x0000000000012ae8       0xa4 c:/program files/microchip/xc32/v4.60/bin/bin/../../lib/gcc/pic32c/8.3.1/../../../../pic32c/lib/thumb/v7e-m+fp/hard\libc-size-musl.a(strlen.o)
 .debug_info    0x0000000000012b8c      0x1bd c:/program files/microchip/xc32/v4.60/bin/bin/../../lib/gcc/pic32c/8.3.1/../../../../pic32c/lib/thumb/v7e-m+fp/hard\liblmalloc-musl.a(lite_malloc.o)
 .debug_info    0x0000000000012d49      0x26f c:/program files/microchip/xc32/v4.60/bin/bin/../../lib/gcc/pic32c/8.3.1/../../../../pic32c/lib/thumb/v7e-m+fp/hard\liblmalloc-musl.a(lite_free.o)
 .debug_info    0x0000000000012fb8      0x10e c:/program files/microchip/xc32/v4.60/bin/bin/../../lib/gcc/pic32c/8.3.1/../../../../pic32c/lib/thumb/v7e-m+fp/hard\libg-musl.a(expand_heap.o)
 .debug_info    0x00000000000130c6       0x6a c:/program files/microchip/xc32/v4.60/bin/bin/../../lib/gcc/pic32c/8.3.1/../../../../pic32c/lib/thumb/v7e-m+fp/hard\libpic32c.a(sbrk.o)
 .debug_info    0x0000000000013130       0x3f c:/program files/microchip/xc32/v4.60/bin/bin/../../lib/gcc/pic32c/8.3.1/../../../../pic32c/lib/thumb/v7e-m+fp/hard\libpic32c.a(pic32_data_init_clear.o)
 .debug_info    0x000000000001316f       0x40 c:/program files/microchip/xc32/v4.60/bin/bin/../../lib/gcc/pic32c/8.3.1/../../../../pic32c/lib/thumb/v7e-m+fp/hard\libpic32c.a(pic32_data_init_copy.o)

.debug_abbrev   0x0000000000000000     0x5c57
 .debug_abbrev  0x0000000000000000      0x10b build/default/debug/_ext/1984496892/plib_clock.o
 .debug_abbrev  0x000000000000010b      0x35b build/default/debug/_ext/1865161661/plib_dmac.o
 .debug_abbrev  0x0000000000000466       0xff build/default/debug/_ext/1986646378/plib_evsys.o
 .debug_abbrev  0x0000000000000565      0x258 build/default/debug/_ext/1865468468/plib_nvic.o
 .debug_abbrev  0x00000000000007bd      0x23c build/default/debug/_ext/1593096446/plib_nvmctrl.o
 .debug_abbrev  0x00000000000009f9      0x1ea build/default/debug/_ext/1865521619/plib_port.o
 .debug_abbrev  0x0000000000000be3      0x1e7 build/default/debug/_ext/17022449/plib_sercom1_spi_master.o
 .debug_abbrev  0x0000000000000dca      0x1ef build/default/debug/_ext/1827571544/plib_systick.o
 .debug_abbrev  0x0000000000000fb9      0x133 build/default/debug/_ext/60181570/plib_tcc0.o
 .debug_abbrev  0x00000000000010ec       0xc0 build/default/debug/_ext/1865643529/plib_trng.o
 .debug_abbrev  0x00000000000011ac       0xd8 build/default/debug/_ext/163028504/xc32_monitor.o
 .debug_abbrev  0x0000000000001284      0x11e build/default/debug/_ext/1171490990/initialization.o
 .debug_abbrev  0x00000000000013a2       0xc0 build/default/debug/_ext/1171490990/interrupts.o
 .debug_abbrev  0x0000000000001462       0x49 build/default/debug/_ext/1171490990/exceptions.o
 .debug_abbrev  0x00000000000014ab      0x1e3 build/default/debug/_ext/1171490990/startup_xc32.o
 .debug_abbrev  0x000000000000168e      0x159 build/default/debug/_ext/1171490990/freertos_hooks.o
 .debug_abbrev  0x00000000000017e7      0x217 build/default/debug/_ext/246609638/port.o
 .debug_abbrev  0x00000000000019fe      0x162 build/default/debug/_ext/1665200909/heap_1.o
 .debug_abbrev  0x0000000000001b60      0x12c build/default/debug/_ext/404212886/list.o
 .debug_abbrev  0x0000000000001c8c      0x443 build/default/debug/_ext/404212886/FreeRTOS_tasks.o
 .debug_abbrev  0x00000000000020cf      0x18b build/default/debug/_ext/1360937237/main.o
 .debug_abbrev  0x000000000000225a      0x307 build/default/debug/_ext/1360937237/neopixel.o
 .debug_abbrev  0x0000000000002561      0x2a3 build/default/debug/_ext/1360937237/actuator.o
 .debug_abbrev  0x0000000000002804      0x284 build/default/debug/_ext/504274921/plib_sercom5_usart.o
 .debug_abbrev  0x0000000000002a88       0x44 c:/program files/microchip/xc32/v4.60/bin/bin/../../lib/gcc/pic32c/8.3.1/../../../../pic32c/lib/thumb/v7e-m+fp/hard\libpic32c.a(data_init.o)
 .debug_abbrev  0x0000000000002acc       0xbb c:/program files/microchip/xc32/v4.60/bin/bin/../../lib/gcc/pic32c/8.3.1/../../../../pic32c/lib/thumb/v7e-m+fp/hard\libc-size-musl.a(memcpy.o)
 .debug_abbrev  0x0000000000002b87       0xa2 c:/program files/microchip/xc32/v4.60/bin/bin/../../lib/gcc/pic32c/8.3.1/../../../../pic32c/lib/thumb/v7e-m+fp/hard\libc-size-musl.a(memset.o)
 .debug_abbrev  0x0000000000002c29      0x133 c:/program files/microchip/xc32/v4.60/bin/bin/../../lib/gcc/pic32c/8.3.1/../../../../pic32c/lib/thumb/v7e-m+fp/hard\libg-musl.a(__libc_start_main.o)
 .debug_abbrev  0x0000000000002d5c       0xd4 c:/program files/microchip/xc32/v4.60/bin/bin/../../lib/gcc/pic32c/8.3.1/../../../../pic32c/lib/thumb/v7e-m+fp/hard\libg-musl.a(libc.o)
 .debug_abbrev  0x0000000000002e30      0x150 c:/program files/microchip/xc32/v4.60/bin/bin/../../lib/gcc/pic32c/8.3.1/../../../../pic32c/lib/thumb/v7e-m+fp/hard\libg-musl.a(__sio_printf_nu.o)
 .debug_abbrev  0x0000000000002f80      0x161 c:/program files/microchip/xc32/v4.60/bin/bin/../../lib/gcc/pic32c/8.3.1/../../../../pic32c/lib/thumb/v7e-m+fp/hard\libg-musl.a(__fmt_u.o)
 .debug_abbrev  0x00000000000030e1       0xdc c:/program files/microchip/xc32/v4.60/bin/bin/../../lib/gcc/pic32c/8.3.1/../../../../pic32c/lib/thumb/v7e-m+fp/hard\libg-musl.a(__pop_int.o)
 .debug_abbrev  0x00000000000031bd       0xed c:/program files/microchip/xc32/v4.60/bin/bin/../../lib/gcc/pic32c/8.3.1/../../../../pic32c/lib/thumb/v7e-m+fp/hard\libg-musl.a(__pop_ptr.o)
 .debug_abbrev  0x00000000000032aa      0x332 c:/program files/microchip/xc32/v4.60/bin/bin/../../lib/gcc/pic32c/8.3.1/../../../../pic32c/lib/thumb/v7e-m+fp/hard\libg-musl.a(__printf_core.o)
 .debug_abbrev  0x00000000000035dc      0x1b6 c:/program files/microchip/xc32/v4.60/bin/bin/../../lib/gcc/pic32c/8.3.1/../../../../pic32c/lib/thumb/v7e-m+fp/hard\libg-musl.a(stdin.o)
 .debug_abbrev  0x0000000000003792      0x162 c:/program files/microchip/xc32/v4.60/bin/bin/../../lib/gcc/pic32c/8.3.1/../../../../pic32c/lib/thumb/v7e-m+fp/hard\libg-musl.a(stdout.o)
 .debug_abbrev  0x00000000000038f4      0x159 c:/program files/microchip/xc32/v4.60/bin/bin/../../lib/gcc/pic32c/8.3.1/../../../../pic32c/lib/thumb/v7e-m+fp/hard\libg-musl.a(puts.o)
 .debug_abbrev  0x0000000000003a4d       0xab c:/program files/microchip/xc32/v4.60/bin/bin/../../lib/gcc/pic32c/8.3.1/../../../../pic32c/lib/thumb/v7e-m+fp/hard\libg-musl.a(setbuf.o)
 .debug_abbrev  0x0000000000003af8       0xc6 c:/program files/microchip/xc32/v4.60/bin/bin/../../lib/gcc/pic32c/8.3.1/../../../../pic32c/lib/thumb/v7e-m+fp/hard\libg-musl.a(atoi.o)
 .debug_abbrev  0x0000000000003bbe      0x108 c:/program files/microchip/xc32/v4.60/bin/bin/../../lib/gcc/pic32c/8.3.1/../../../../pic32c/lib/thumb/v7e-m+fp/hard\libg-musl.a(tolower.o)
 .debug_abbrev  0x0000000000003cc6       0x62 c:/program files/microchip/xc32/v4.60/bin/bin/../../lib/gcc/pic32c/8.3.1/../../../../pic32c/lib/thumb/v7e-m+fp/hard\libg-musl.a(__environ.o)
 .debug_abbrev  0x0000000000003d28       0x39 c:/program files/microchip/xc32/v4.60/bin/bin/../../lib/gcc/pic32c/8.3.1/../../../../pic32c/lib/thumb/v7e-m+fp/hard\libg-musl.a(__errno_location.o)
 .debug_abbrev  0x0000000000003d61      0x12d c:/program files/microchip/xc32/v4.60/bin/bin/../../lib/gcc/pic32c/8.3.1/../../../../pic32c/lib/thumb/v7e-m+fp/hard\libg-musl.a(__int_vfprintf.o)
 .debug_abbrev  0x0000000000003e8e      0x146 c:/program files/microchip/xc32/v4.60/bin/bin/../../lib/gcc/pic32c/8.3.1/../../../../pic32c/lib/thumb/v7e-m+fp/hard\libg-musl.a(fputs.o)
 .debug_abbrev  0x0000000000003fd4       0xe5 c:/program files/microchip/xc32/v4.60/bin/bin/../../lib/gcc/pic32c/8.3.1/../../../../pic32c/lib/thumb/v7e-m+fp/hard\libg-musl.a(__cvt_u.o)
 .debug_abbrev  0x00000000000040b9       0xdc c:/program files/microchip/xc32/v4.60/bin/bin/../../lib/gcc/pic32c/8.3.1/../../../../pic32c/lib/thumb/v7e-m+fp/hard\libg-musl.a(__pop_float.o)
 .debug_abbrev  0x0000000000004195      0x16c c:/program files/microchip/xc32/v4.60/bin/bin/../../lib/gcc/pic32c/8.3.1/../../../../pic32c/lib/thumb/v7e-m+fp/hard\libg-musl.a(__stdio_read.o)
 .debug_abbrev  0x0000000000004301       0xf8 c:/program files/microchip/xc32/v4.60/bin/bin/../../lib/gcc/pic32c/8.3.1/../../../../pic32c/lib/thumb/v7e-m+fp/hard\libg-musl.a(__towrite_rw.o)
 .debug_abbrev  0x00000000000043f9      0x13f c:/program files/microchip/xc32/v4.60/bin/bin/../../lib/gcc/pic32c/8.3.1/../../../../pic32c/lib/thumb/v7e-m+fp/hard\libg-musl.a(fwrite.o)
 .debug_abbrev  0x0000000000004538      0x125 c:/program files/microchip/xc32/v4.60/bin/bin/../../lib/gcc/pic32c/8.3.1/../../../../pic32c/lib/thumb/v7e-m+fp/hard\libg-musl.a(putc.o)
 .debug_abbrev  0x000000000000465d      0x138 c:/program files/microchip/xc32/v4.60/bin/bin/../../lib/gcc/pic32c/8.3.1/../../../../pic32c/lib/thumb/v7e-m+fp/hard\libg-musl.a(setvbuf.o)
 .debug_abbrev  0x0000000000004795       0xf7 c:/program files/microchip/xc32/v4.60/bin/bin/../../lib/gcc/pic32c/8.3.1/../../../../pic32c/lib/thumb/v7e-m+fp/hard\libg-musl.a(readv.o)
 .debug_abbrev  0x000000000000488c       0x65 c:/program files/microchip/xc32/v4.60/bin/bin/../../lib/gcc/pic32c/8.3.1/../../../../pic32c/lib/thumb/v7e-m+fp/hard\libg-musl.a(__init_stdio.o)
 .debug_abbrev  0x00000000000048f1      0x18c c:/program files/microchip/xc32/v4.60/bin/bin/../../lib/gcc/pic32c/8.3.1/../../../../pic32c/lib/thumb/v7e-m+fp/hard\libg-musl.a(__out.o)
 .debug_abbrev  0x0000000000004a7d      0x10f c:/program files/microchip/xc32/v4.60/bin/bin/../../lib/gcc/pic32c/8.3.1/../../../../pic32c/lib/thumb/v7e-m+fp/hard\libg-musl.a(__putc.o)
 .debug_abbrev  0x0000000000004b8c      0x181 c:/program files/microchip/xc32/v4.60/bin/bin/../../lib/gcc/pic32c/8.3.1/../../../../pic32c/lib/thumb/v7e-m+fp/hard\libg-musl.a(__stderr.o)
 .debug_abbrev  0x0000000000004d0d      0x152 c:/program files/microchip/xc32/v4.60/bin/bin/../../lib/gcc/pic32c/8.3.1/../../../../pic32c/lib/thumb/v7e-m+fp/hard\libg-musl.a(__stdio_close.o)
 .debug_abbrev  0x0000000000004e5f      0x1bd c:/program files/microchip/xc32/v4.60/bin/bin/../../lib/gcc/pic32c/8.3.1/../../../../pic32c/lib/thumb/v7e-m+fp/hard\libg-musl.a(__stdio_write.o)
 .debug_abbrev  0x000000000000501c      0x181 c:/program files/microchip/xc32/v4.60/bin/bin/../../lib/gcc/pic32c/8.3.1/../../../../pic32c/lib/thumb/v7e-m+fp/hard\libg-musl.a(__stdout.o)
 .debug_abbrev  0x000000000000519d      0x114 c:/program files/microchip/xc32/v4.60/bin/bin/../../lib/gcc/pic32c/8.3.1/../../../../pic32c/lib/thumb/v7e-m+fp/hard\libg-musl.a(__towrite.o)
 .debug_abbrev  0x00000000000052b1       0xf7 c:/program files/microchip/xc32/v4.60/bin/bin/../../lib/gcc/pic32c/8.3.1/../../../../pic32c/lib/thumb/v7e-m+fp/hard\libg-musl.a(writev.o)
 .debug_abbrev  0x00000000000053a8      0x141 c:/program files/microchip/xc32/v4.60/bin/bin/../../lib/gcc/pic32c/8.3.1/../../../../pic32c/lib/thumb/v7e-m+fp/hard\libg-musl.a(__overflow.o)
 .debug_abbrev  0x00000000000054e9      0x127 c:/program files/microchip/xc32/v4.60/bin/bin/../../lib/gcc/pic32c/8.3.1/../../../../pic32c/lib/thumb/v7e-m+fp/hard\libg-musl.a(__fwrite.o)
 .debug_abbrev  0x0000000000005610       0x14 c:/program files/microchip/xc32/v4.60/bin/bin/../../lib/gcc/pic32c/8.3.1/thumb/v7e-m+fp/hard\libgcc.a(_aeabi_uldivmod.o)
 .debug_abbrev  0x0000000000005624      0x122 c:/program files/microchip/xc32/v4.60/bin/bin/../../lib/gcc/pic32c/8.3.1/thumb/v7e-m+fp/hard\libgcc.a(_udivmoddi4.o)
 .debug_abbrev  0x0000000000005746       0x14 c:/program files/microchip/xc32/v4.60/bin/bin/../../lib/gcc/pic32c/8.3.1/thumb/v7e-m+fp/hard\libgcc.a(_dvmd_tls.o)
 .debug_abbrev  0x000000000000575a       0x2e c:/program files/microchip/xc32/v4.60/bin/bin/../../lib/gcc/pic32c/8.3.1/../../../../pic32c/lib/thumb/v7e-m+fp/hard\libpic32c.a(close.o)
 .debug_abbrev  0x0000000000005788       0x2e c:/program files/microchip/xc32/v4.60/bin/bin/../../lib/gcc/pic32c/8.3.1/../../../../pic32c/lib/thumb/v7e-m+fp/hard\libpic32c.a(lseek.o)
 .debug_abbrev  0x00000000000057b6       0x91 c:/program files/microchip/xc32/v4.60/bin/bin/../../lib/gcc/pic32c/8.3.1/../../../../pic32c/lib/thumb/v7e-m+fp/hard\libc-size-musl.a(strlen.o)
 .debug_abbrev  0x0000000000005847      0x117 c:/program files/microchip/xc32/v4.60/bin/bin/../../lib/gcc/pic32c/8.3.1/../../../../pic32c/lib/thumb/v7e-m+fp/hard\liblmalloc-musl.a(lite_malloc.o)
 .debug_abbrev  0x000000000000595e      0x195 c:/program files/microchip/xc32/v4.60/bin/bin/../../lib/gcc/pic32c/8.3.1/../../../../pic32c/lib/thumb/v7e-m+fp/hard\liblmalloc-musl.a(lite_free.o)
 .debug_abbrev  0x0000000000005af3       0xc4 c:/program files/microchip/xc32/v4.60/bin/bin/../../lib/gcc/pic32c/8.3.1/../../../../pic32c/lib/thumb/v7e-m+fp/hard\libg-musl.a(expand_heap.o)
 .debug_abbrev  0x0000000000005bb7       0x44 c:/program files/microchip/xc32/v4.60/bin/bin/../../lib/gcc/pic32c/8.3.1/../../../../pic32c/lib/thumb/v7e-m+fp/hard\libpic32c.a(sbrk.o)
 .debug_abbrev  0x0000000000005bfb       0x2e c:/program files/microchip/xc32/v4.60/bin/bin/../../lib/gcc/pic32c/8.3.1/../../../../pic32c/lib/thumb/v7e-m+fp/hard\libpic32c.a(pic32_data_init_clear.o)
 .debug_abbrev  0x0000000000005c29       0x2e c:/program files/microchip/xc32/v4.60/bin/bin/../../lib/gcc/pic32c/8.3.1/../../../../pic32c/lib/thumb/v7e-m+fp/hard\libpic32c.a(pic32_data_init_copy.o)

.debug_aranges  0x0000000000000000     0x1088
 .debug_aranges
                0x0000000000000000       0x20 build/default/debug/_ext/1984496892/plib_clock.o
 .debug_aranges
                0x0000000000000020       0xa0 build/default/debug/_ext/1865161661/plib_dmac.o
 .debug_aranges
                0x00000000000000c0       0x40 build/default/debug/_ext/1986646378/plib_evsys.o
 .debug_aranges
                0x0000000000000100       0x48 build/default/debug/_ext/1865468468/plib_nvic.o
 .debug_aranges
                0x0000000000000148       0xd8 build/default/debug/_ext/1593096446/plib_nvmctrl.o
 .debug_aranges
                0x0000000000000220       0x70 build/default/debug/_ext/1865521619/plib_port.o
 .debug_aranges
                0x0000000000000290       0x48 build/default/debug/_ext/17022449/plib_sercom1_spi_master.o
 .debug_aranges
                0x00000000000002d8       0x98 build/default/debug/_ext/1827571544/plib_systick.o
 .debug_aranges
                0x0000000000000370       0x80 build/default/debug/_ext/60181570/plib_tcc0.o
 .debug_aranges
                0x00000000000003f0       0x28 build/default/debug/_ext/1865643529/plib_trng.o
 .debug_aranges
                0x0000000000000418       0x28 build/default/debug/_ext/163028504/xc32_monitor.o
 .debug_aranges
                0x0000000000000440       0x20 build/default/debug/_ext/1171490990/initialization.o
 .debug_aranges
                0x0000000000000460       0x20 build/default/debug/_ext/1171490990/interrupts.o
 .debug_aranges
                0x0000000000000480       0x48 build/default/debug/_ext/1171490990/exceptions.o
 .debug_aranges
                0x00000000000004c8       0x28 build/default/debug/_ext/1171490990/startup_xc32.o
 .debug_aranges
                0x00000000000004f0       0x40 build/default/debug/_ext/1171490990/freertos_hooks.o
 .debug_aranges
                0x0000000000000530       0x78 build/default/debug/_ext/246609638/port.o
 .debug_aranges
                0x00000000000005a8       0x40 build/default/debug/_ext/1665200909/heap_1.o
 .debug_aranges
                0x00000000000005e8       0x40 build/default/debug/_ext/404212886/list.o
 .debug_aranges
                0x0000000000000628      0x1a0 build/default/debug/_ext/404212886/FreeRTOS_tasks.o
 .debug_aranges
                0x00000000000007c8       0x30 build/default/debug/_ext/1360937237/main.o
 .debug_aranges
                0x00000000000007f8       0x60 build/default/debug/_ext/1360937237/neopixel.o
 .debug_aranges
                0x0000000000000858       0x40 build/default/debug/_ext/1360937237/actuator.o
 .debug_aranges
                0x0000000000000898       0xa8 build/default/debug/_ext/504274921/plib_sercom5_usart.o
 .debug_aranges
                0x0000000000000940       0x30 c:/program files/microchip/xc32/v4.60/bin/bin/../../lib/gcc/pic32c/8.3.1/../../../../pic32c/lib/thumb/v7e-m+fp/hard\libpic32c.a(data_init.o)
 .debug_aranges
                0x0000000000000970       0x20 c:/program files/microchip/xc32/v4.60/bin/bin/../../lib/gcc/pic32c/8.3.1/../../../../pic32c/lib/thumb/v7e-m+fp/hard\libc-size-musl.a(memcpy.o)
 .debug_aranges
                0x0000000000000990       0x20 c:/program files/microchip/xc32/v4.60/bin/bin/../../lib/gcc/pic32c/8.3.1/../../../../pic32c/lib/thumb/v7e-m+fp/hard\libc-size-musl.a(memset.o)
 .debug_aranges
                0x00000000000009b0       0x28 c:/program files/microchip/xc32/v4.60/bin/bin/../../lib/gcc/pic32c/8.3.1/../../../../pic32c/lib/thumb/v7e-m+fp/hard\libg-musl.a(__libc_start_main.o)
 .debug_aranges
                0x00000000000009d8       0x18 c:/program files/microchip/xc32/v4.60/bin/bin/../../lib/gcc/pic32c/8.3.1/../../../../pic32c/lib/thumb/v7e-m+fp/hard\libg-musl.a(libc.o)
 .debug_aranges
                0x00000000000009f0       0x28 c:/program files/microchip/xc32/v4.60/bin/bin/../../lib/gcc/pic32c/8.3.1/../../../../pic32c/lib/thumb/v7e-m+fp/hard\libg-musl.a(__sio_printf_nu.o)
 .debug_aranges
                0x0000000000000a18       0x20 c:/program files/microchip/xc32/v4.60/bin/bin/../../lib/gcc/pic32c/8.3.1/../../../../pic32c/lib/thumb/v7e-m+fp/hard\libg-musl.a(__fmt_u.o)
 .debug_aranges
                0x0000000000000a38       0x20 c:/program files/microchip/xc32/v4.60/bin/bin/../../lib/gcc/pic32c/8.3.1/../../../../pic32c/lib/thumb/v7e-m+fp/hard\libg-musl.a(__pop_int.o)
 .debug_aranges
                0x0000000000000a58       0x20 c:/program files/microchip/xc32/v4.60/bin/bin/../../lib/gcc/pic32c/8.3.1/../../../../pic32c/lib/thumb/v7e-m+fp/hard\libg-musl.a(__pop_ptr.o)
 .debug_aranges
                0x0000000000000a78       0x50 c:/program files/microchip/xc32/v4.60/bin/bin/../../lib/gcc/pic32c/8.3.1/../../../../pic32c/lib/thumb/v7e-m+fp/hard\libg-musl.a(__printf_core.o)
 .debug_aranges
                0x0000000000000ac8       0x28 c:/program files/microchip/xc32/v4.60/bin/bin/../../lib/gcc/pic32c/8.3.1/../../../../pic32c/lib/thumb/v7e-m+fp/hard\libg-musl.a(stdin.o)
 .debug_aranges
                0x0000000000000af0       0x30 c:/program files/microchip/xc32/v4.60/bin/bin/../../lib/gcc/pic32c/8.3.1/../../../../pic32c/lib/thumb/v7e-m+fp/hard\libg-musl.a(stdout.o)
 .debug_aranges
                0x0000000000000b20       0x20 c:/program files/microchip/xc32/v4.60/bin/bin/../../lib/gcc/pic32c/8.3.1/../../../../pic32c/lib/thumb/v7e-m+fp/hard\libg-musl.a(puts.o)
 .debug_aranges
                0x0000000000000b40       0x20 c:/program files/microchip/xc32/v4.60/bin/bin/../../lib/gcc/pic32c/8.3.1/../../../../pic32c/lib/thumb/v7e-m+fp/hard\libg-musl.a(setbuf.o)
 .debug_aranges
                0x0000000000000b60       0x20 c:/program files/microchip/xc32/v4.60/bin/bin/../../lib/gcc/pic32c/8.3.1/../../../../pic32c/lib/thumb/v7e-m+fp/hard\libg-musl.a(atoi.o)
 .debug_aranges
                0x0000000000000b80       0x28 c:/program files/microchip/xc32/v4.60/bin/bin/../../lib/gcc/pic32c/8.3.1/../../../../pic32c/lib/thumb/v7e-m+fp/hard\libg-musl.a(tolower.o)
 .debug_aranges
                0x0000000000000ba8       0x18 c:/program files/microchip/xc32/v4.60/bin/bin/../../lib/gcc/pic32c/8.3.1/../../../../pic32c/lib/thumb/v7e-m+fp/hard\libg-musl.a(__environ.o)
 .debug_aranges
                0x0000000000000bc0       0x18 c:/program files/microchip/xc32/v4.60/bin/bin/../../lib/gcc/pic32c/8.3.1/../../../../pic32c/lib/thumb/v7e-m+fp/hard\libg-musl.a(__errno_location.o)
 .debug_aranges
                0x0000000000000bd8       0x20 c:/program files/microchip/xc32/v4.60/bin/bin/../../lib/gcc/pic32c/8.3.1/../../../../pic32c/lib/thumb/v7e-m+fp/hard\libg-musl.a(__int_vfprintf.o)
 .debug_aranges
                0x0000000000000bf8       0x20 c:/program files/microchip/xc32/v4.60/bin/bin/../../lib/gcc/pic32c/8.3.1/../../../../pic32c/lib/thumb/v7e-m+fp/hard\libg-musl.a(fputs.o)
 .debug_aranges
                0x0000000000000c18       0x20 c:/program files/microchip/xc32/v4.60/bin/bin/../../lib/gcc/pic32c/8.3.1/../../../../pic32c/lib/thumb/v7e-m+fp/hard\libg-musl.a(__cvt_u.o)
 .debug_aranges
                0x0000000000000c38       0x20 c:/program files/microchip/xc32/v4.60/bin/bin/../../lib/gcc/pic32c/8.3.1/../../../../pic32c/lib/thumb/v7e-m+fp/hard\libg-musl.a(__pop_float.o)
 .debug_aranges
                0x0000000000000c58       0x20 c:/program files/microchip/xc32/v4.60/bin/bin/../../lib/gcc/pic32c/8.3.1/../../../../pic32c/lib/thumb/v7e-m+fp/hard\libg-musl.a(__stdio_read.o)
 .debug_aranges
                0x0000000000000c78       0x20 c:/program files/microchip/xc32/v4.60/bin/bin/../../lib/gcc/pic32c/8.3.1/../../../../pic32c/lib/thumb/v7e-m+fp/hard\libg-musl.a(__towrite_rw.o)
 .debug_aranges
                0x0000000000000c98       0x28 c:/program files/microchip/xc32/v4.60/bin/bin/../../lib/gcc/pic32c/8.3.1/../../../../pic32c/lib/thumb/v7e-m+fp/hard\libg-musl.a(fwrite.o)
 .debug_aranges
                0x0000000000000cc0       0x30 c:/program files/microchip/xc32/v4.60/bin/bin/../../lib/gcc/pic32c/8.3.1/../../../../pic32c/lib/thumb/v7e-m+fp/hard\libg-musl.a(putc.o)
 .debug_aranges
                0x0000000000000cf0       0x28 c:/program files/microchip/xc32/v4.60/bin/bin/../../lib/gcc/pic32c/8.3.1/../../../../pic32c/lib/thumb/v7e-m+fp/hard\libg-musl.a(setvbuf.o)
 .debug_aranges
                0x0000000000000d18       0x20 c:/program files/microchip/xc32/v4.60/bin/bin/../../lib/gcc/pic32c/8.3.1/../../../../pic32c/lib/thumb/v7e-m+fp/hard\libg-musl.a(readv.o)
 .debug_aranges
                0x0000000000000d38       0x28 c:/program files/microchip/xc32/v4.60/bin/bin/../../lib/gcc/pic32c/8.3.1/../../../../pic32c/lib/thumb/v7e-m+fp/hard\libg-musl.a(__init_stdio.o)
 .debug_aranges
                0x0000000000000d60       0x28 c:/program files/microchip/xc32/v4.60/bin/bin/../../lib/gcc/pic32c/8.3.1/../../../../pic32c/lib/thumb/v7e-m+fp/hard\libg-musl.a(__out.o)
 .debug_aranges
                0x0000000000000d88       0x20 c:/program files/microchip/xc32/v4.60/bin/bin/../../lib/gcc/pic32c/8.3.1/../../../../pic32c/lib/thumb/v7e-m+fp/hard\libg-musl.a(__putc.o)
 .debug_aranges
                0x0000000000000da8       0x30 c:/program files/microchip/xc32/v4.60/bin/bin/../../lib/gcc/pic32c/8.3.1/../../../../pic32c/lib/thumb/v7e-m+fp/hard\libg-musl.a(__stderr.o)
 .debug_aranges
                0x0000000000000dd8       0x28 c:/program files/microchip/xc32/v4.60/bin/bin/../../lib/gcc/pic32c/8.3.1/../../../../pic32c/lib/thumb/v7e-m+fp/hard\libg-musl.a(__stdio_close.o)
 .debug_aranges
                0x0000000000000e00       0x28 c:/program files/microchip/xc32/v4.60/bin/bin/../../lib/gcc/pic32c/8.3.1/../../../../pic32c/lib/thumb/v7e-m+fp/hard\libg-musl.a(__stdio_write.o)
 .debug_aranges
                0x0000000000000e28       0x30 c:/program files/microchip/xc32/v4.60/bin/bin/../../lib/gcc/pic32c/8.3.1/../../../../pic32c/lib/thumb/v7e-m+fp/hard\libg-musl.a(__stdout.o)
 .debug_aranges
                0x0000000000000e58       0x28 c:/program files/microchip/xc32/v4.60/bin/bin/../../lib/gcc/pic32c/8.3.1/../../../../pic32c/lib/thumb/v7e-m+fp/hard\libg-musl.a(__towrite.o)
 .debug_aranges
                0x0000000000000e80       0x20 c:/program files/microchip/xc32/v4.60/bin/bin/../../lib/gcc/pic32c/8.3.1/../../../../pic32c/lib/thumb/v7e-m+fp/hard\libg-musl.a(writev.o)
 .debug_aranges
                0x0000000000000ea0       0x20 c:/program files/microchip/xc32/v4.60/bin/bin/../../lib/gcc/pic32c/8.3.1/../../../../pic32c/lib/thumb/v7e-m+fp/hard\libg-musl.a(__overflow.o)
 .debug_aranges
                0x0000000000000ec0       0x28 c:/program files/microchip/xc32/v4.60/bin/bin/../../lib/gcc/pic32c/8.3.1/../../../../pic32c/lib/thumb/v7e-m+fp/hard\libg-musl.a(__fwrite.o)
 .debug_aranges
                0x0000000000000ee8       0x20 c:/program files/microchip/xc32/v4.60/bin/bin/../../lib/gcc/pic32c/8.3.1/thumb/v7e-m+fp/hard\libgcc.a(_aeabi_uldivmod.o)
 .debug_aranges
                0x0000000000000f08       0x20 c:/program files/microchip/xc32/v4.60/bin/bin/../../lib/gcc/pic32c/8.3.1/thumb/v7e-m+fp/hard\libgcc.a(_udivmoddi4.o)
 .debug_aranges
                0x0000000000000f28       0x20 c:/program files/microchip/xc32/v4.60/bin/bin/../../lib/gcc/pic32c/8.3.1/thumb/v7e-m+fp/hard\libgcc.a(_dvmd_tls.o)
 .debug_aranges
                0x0000000000000f48       0x20 c:/program files/microchip/xc32/v4.60/bin/bin/../../lib/gcc/pic32c/8.3.1/../../../../pic32c/lib/thumb/v7e-m+fp/hard\libpic32c.a(close.o)
 .debug_aranges
                0x0000000000000f68       0x20 c:/program files/microchip/xc32/v4.60/bin/bin/../../lib/gcc/pic32c/8.3.1/../../../../pic32c/lib/thumb/v7e-m+fp/hard\libpic32c.a(lseek.o)
 .debug_aranges
                0x0000000000000f88       0x20 c:/program files/microchip/xc32/v4.60/bin/bin/../../lib/gcc/pic32c/8.3.1/../../../../pic32c/lib/thumb/v7e-m+fp/hard\libc-size-musl.a(strlen.o)
 .debug_aranges
                0x0000000000000fa8       0x20 c:/program files/microchip/xc32/v4.60/bin/bin/../../lib/gcc/pic32c/8.3.1/../../../../pic32c/lib/thumb/v7e-m+fp/hard\liblmalloc-musl.a(lite_malloc.o)
 .debug_aranges
                0x0000000000000fc8       0x30 c:/program files/microchip/xc32/v4.60/bin/bin/../../lib/gcc/pic32c/8.3.1/../../../../pic32c/lib/thumb/v7e-m+fp/hard\liblmalloc-musl.a(lite_free.o)
 .debug_aranges
                0x0000000000000ff8       0x20 c:/program files/microchip/xc32/v4.60/bin/bin/../../lib/gcc/pic32c/8.3.1/../../../../pic32c/lib/thumb/v7e-m+fp/hard\libg-musl.a(expand_heap.o)
 .debug_aranges
                0x0000000000001018       0x30 c:/program files/microchip/xc32/v4.60/bin/bin/../../lib/gcc/pic32c/8.3.1/../../../../pic32c/lib/thumb/v7e-m+fp/hard\libpic32c.a(sbrk.o)
 .debug_aranges
                0x0000000000001048       0x20 c:/program files/microchip/xc32/v4.60/bin/bin/../../lib/gcc/pic32c/8.3.1/../../../../pic32c/lib/thumb/v7e-m+fp/hard\libpic32c.a(pic32_data_init_clear.o)
 .debug_aranges
                0x0000000000001068       0x20 c:/program files/microchip/xc32/v4.60/bin/bin/../../lib/gcc/pic32c/8.3.1/../../../../pic32c/lib/thumb/v7e-m+fp/hard\libpic32c.a(pic32_data_init_copy.o)

.debug_ranges   0x0000000000000000      0xf80
 .debug_ranges  0x0000000000000000       0x10 build/default/debug/_ext/1984496892/plib_clock.o
 .debug_ranges  0x0000000000000010       0xc8 build/default/debug/_ext/1865161661/plib_dmac.o
 .debug_ranges  0x00000000000000d8       0x30 build/default/debug/_ext/1986646378/plib_evsys.o
 .debug_ranges  0x0000000000000108       0x38 build/default/debug/_ext/1865468468/plib_nvic.o
 .debug_ranges  0x0000000000000140       0xc8 build/default/debug/_ext/1593096446/plib_nvmctrl.o
 .debug_ranges  0x0000000000000208       0x60 build/default/debug/_ext/1865521619/plib_port.o
 .debug_ranges  0x0000000000000268       0x38 build/default/debug/_ext/17022449/plib_sercom1_spi_master.o
 .debug_ranges  0x00000000000002a0       0x88 build/default/debug/_ext/1827571544/plib_systick.o
 .debug_ranges  0x0000000000000328       0x70 build/default/debug/_ext/60181570/plib_tcc0.o
 .debug_ranges  0x0000000000000398       0x18 build/default/debug/_ext/1865643529/plib_trng.o
 .debug_ranges  0x00000000000003b0       0x18 build/default/debug/_ext/163028504/xc32_monitor.o
 .debug_ranges  0x00000000000003c8       0x10 build/default/debug/_ext/1171490990/initialization.o
 .debug_ranges  0x00000000000003d8       0x10 build/default/debug/_ext/1171490990/interrupts.o
 .debug_ranges  0x00000000000003e8       0x38 build/default/debug/_ext/1171490990/exceptions.o
 .debug_ranges  0x0000000000000420       0x18 build/default/debug/_ext/1171490990/startup_xc32.o
 .debug_ranges  0x0000000000000438       0x30 build/default/debug/_ext/1171490990/freertos_hooks.o
 .debug_ranges  0x0000000000000468       0x68 build/default/debug/_ext/246609638/port.o
 .debug_ranges  0x00000000000004d0       0x48 build/default/debug/_ext/1665200909/heap_1.o
 .debug_ranges  0x0000000000000518       0x30 build/default/debug/_ext/404212886/list.o
 .debug_ranges  0x0000000000000548      0x2f0 build/default/debug/_ext/404212886/FreeRTOS_tasks.o
 .debug_ranges  0x0000000000000838       0x20 build/default/debug/_ext/1360937237/main.o
 .debug_ranges  0x0000000000000858      0x150 build/default/debug/_ext/1360937237/neopixel.o
 .debug_ranges  0x00000000000009a8       0x68 build/default/debug/_ext/1360937237/actuator.o
 .debug_ranges  0x0000000000000a10       0x98 build/default/debug/_ext/504274921/plib_sercom5_usart.o
 .debug_ranges  0x0000000000000aa8       0x20 c:/program files/microchip/xc32/v4.60/bin/bin/../../lib/gcc/pic32c/8.3.1/../../../../pic32c/lib/thumb/v7e-m+fp/hard\libpic32c.a(data_init.o)
 .debug_ranges  0x0000000000000ac8       0x10 c:/program files/microchip/xc32/v4.60/bin/bin/../../lib/gcc/pic32c/8.3.1/../../../../pic32c/lib/thumb/v7e-m+fp/hard\libc-size-musl.a(memcpy.o)
 .debug_ranges  0x0000000000000ad8       0x10 c:/program files/microchip/xc32/v4.60/bin/bin/../../lib/gcc/pic32c/8.3.1/../../../../pic32c/lib/thumb/v7e-m+fp/hard\libc-size-musl.a(memset.o)
 .debug_ranges  0x0000000000000ae8       0x40 c:/program files/microchip/xc32/v4.60/bin/bin/../../lib/gcc/pic32c/8.3.1/../../../../pic32c/lib/thumb/v7e-m+fp/hard\libg-musl.a(__libc_start_main.o)
 .debug_ranges  0x0000000000000b28       0x18 c:/program files/microchip/xc32/v4.60/bin/bin/../../lib/gcc/pic32c/8.3.1/../../../../pic32c/lib/thumb/v7e-m+fp/hard\libg-musl.a(__sio_printf_nu.o)
 .debug_ranges  0x0000000000000b40       0x10 c:/program files/microchip/xc32/v4.60/bin/bin/../../lib/gcc/pic32c/8.3.1/../../../../pic32c/lib/thumb/v7e-m+fp/hard\libg-musl.a(__fmt_u.o)
 .debug_ranges  0x0000000000000b50       0x10 c:/program files/microchip/xc32/v4.60/bin/bin/../../lib/gcc/pic32c/8.3.1/../../../../pic32c/lib/thumb/v7e-m+fp/hard\libg-musl.a(__pop_int.o)
 .debug_ranges  0x0000000000000b60       0x10 c:/program files/microchip/xc32/v4.60/bin/bin/../../lib/gcc/pic32c/8.3.1/../../../../pic32c/lib/thumb/v7e-m+fp/hard\libg-musl.a(__pop_ptr.o)
 .debug_ranges  0x0000000000000b70       0x58 c:/program files/microchip/xc32/v4.60/bin/bin/../../lib/gcc/pic32c/8.3.1/../../../../pic32c/lib/thumb/v7e-m+fp/hard\libg-musl.a(__printf_core.o)
 .debug_ranges  0x0000000000000bc8       0x18 c:/program files/microchip/xc32/v4.60/bin/bin/../../lib/gcc/pic32c/8.3.1/../../../../pic32c/lib/thumb/v7e-m+fp/hard\libg-musl.a(stdin.o)
 .debug_ranges  0x0000000000000be0       0x20 c:/program files/microchip/xc32/v4.60/bin/bin/../../lib/gcc/pic32c/8.3.1/../../../../pic32c/lib/thumb/v7e-m+fp/hard\libg-musl.a(stdout.o)
 .debug_ranges  0x0000000000000c00       0x10 c:/program files/microchip/xc32/v4.60/bin/bin/../../lib/gcc/pic32c/8.3.1/../../../../pic32c/lib/thumb/v7e-m+fp/hard\libg-musl.a(puts.o)
 .debug_ranges  0x0000000000000c10       0x10 c:/program files/microchip/xc32/v4.60/bin/bin/../../lib/gcc/pic32c/8.3.1/../../../../pic32c/lib/thumb/v7e-m+fp/hard\libg-musl.a(setbuf.o)
 .debug_ranges  0x0000000000000c20       0x10 c:/program files/microchip/xc32/v4.60/bin/bin/../../lib/gcc/pic32c/8.3.1/../../../../pic32c/lib/thumb/v7e-m+fp/hard\libg-musl.a(atoi.o)
 .debug_ranges  0x0000000000000c30       0x18 c:/program files/microchip/xc32/v4.60/bin/bin/../../lib/gcc/pic32c/8.3.1/../../../../pic32c/lib/thumb/v7e-m+fp/hard\libg-musl.a(tolower.o)
 .debug_ranges  0x0000000000000c48       0x10 c:/program files/microchip/xc32/v4.60/bin/bin/../../lib/gcc/pic32c/8.3.1/../../../../pic32c/lib/thumb/v7e-m+fp/hard\libg-musl.a(__int_vfprintf.o)
 .debug_ranges  0x0000000000000c58       0x10 c:/program files/microchip/xc32/v4.60/bin/bin/../../lib/gcc/pic32c/8.3.1/../../../../pic32c/lib/thumb/v7e-m+fp/hard\libg-musl.a(fputs.o)
 .debug_ranges  0x0000000000000c68       0x10 c:/program files/microchip/xc32/v4.60/bin/bin/../../lib/gcc/pic32c/8.3.1/../../../../pic32c/lib/thumb/v7e-m+fp/hard\libg-musl.a(__cvt_u.o)
 .debug_ranges  0x0000000000000c78       0x10 c:/program files/microchip/xc32/v4.60/bin/bin/../../lib/gcc/pic32c/8.3.1/../../../../pic32c/lib/thumb/v7e-m+fp/hard\libg-musl.a(__pop_float.o)
 .debug_ranges  0x0000000000000c88       0x10 c:/program files/microchip/xc32/v4.60/bin/bin/../../lib/gcc/pic32c/8.3.1/../../../../pic32c/lib/thumb/v7e-m+fp/hard\libg-musl.a(__stdio_read.o)
 .debug_ranges  0x0000000000000c98       0x10 c:/program files/microchip/xc32/v4.60/bin/bin/../../lib/gcc/pic32c/8.3.1/../../../../pic32c/lib/thumb/v7e-m+fp/hard\libg-musl.a(__towrite_rw.o)
 .debug_ranges  0x0000000000000ca8       0x18 c:/program files/microchip/xc32/v4.60/bin/bin/../../lib/gcc/pic32c/8.3.1/../../../../pic32c/lib/thumb/v7e-m+fp/hard\libg-musl.a(fwrite.o)
 .debug_ranges  0x0000000000000cc0       0x20 c:/program files/microchip/xc32/v4.60/bin/bin/../../lib/gcc/pic32c/8.3.1/../../../../pic32c/lib/thumb/v7e-m+fp/hard\libg-musl.a(putc.o)
 .debug_ranges  0x0000000000000ce0       0x18 c:/program files/microchip/xc32/v4.60/bin/bin/../../lib/gcc/pic32c/8.3.1/../../../../pic32c/lib/thumb/v7e-m+fp/hard\libg-musl.a(setvbuf.o)
 .debug_ranges  0x0000000000000cf8       0x10 c:/program files/microchip/xc32/v4.60/bin/bin/../../lib/gcc/pic32c/8.3.1/../../../../pic32c/lib/thumb/v7e-m+fp/hard\libg-musl.a(readv.o)
 .debug_ranges  0x0000000000000d08       0x18 c:/program files/microchip/xc32/v4.60/bin/bin/../../lib/gcc/pic32c/8.3.1/../../../../pic32c/lib/thumb/v7e-m+fp/hard\libg-musl.a(__init_stdio.o)
 .debug_ranges  0x0000000000000d20       0x18 c:/program files/microchip/xc32/v4.60/bin/bin/../../lib/gcc/pic32c/8.3.1/../../../../pic32c/lib/thumb/v7e-m+fp/hard\libg-musl.a(__out.o)
 .debug_ranges  0x0000000000000d38       0x10 c:/program files/microchip/xc32/v4.60/bin/bin/../../lib/gcc/pic32c/8.3.1/../../../../pic32c/lib/thumb/v7e-m+fp/hard\libg-musl.a(__putc.o)
 .debug_ranges  0x0000000000000d48       0x20 c:/program files/microchip/xc32/v4.60/bin/bin/../../lib/gcc/pic32c/8.3.1/../../../../pic32c/lib/thumb/v7e-m+fp/hard\libg-musl.a(__stderr.o)
 .debug_ranges  0x0000000000000d68       0x18 c:/program files/microchip/xc32/v4.60/bin/bin/../../lib/gcc/pic32c/8.3.1/../../../../pic32c/lib/thumb/v7e-m+fp/hard\libg-musl.a(__stdio_close.o)
 .debug_ranges  0x0000000000000d80       0x30 c:/program files/microchip/xc32/v4.60/bin/bin/../../lib/gcc/pic32c/8.3.1/../../../../pic32c/lib/thumb/v7e-m+fp/hard\libg-musl.a(__stdio_write.o)
 .debug_ranges  0x0000000000000db0       0x20 c:/program files/microchip/xc32/v4.60/bin/bin/../../lib/gcc/pic32c/8.3.1/../../../../pic32c/lib/thumb/v7e-m+fp/hard\libg-musl.a(__stdout.o)
 .debug_ranges  0x0000000000000dd0       0x18 c:/program files/microchip/xc32/v4.60/bin/bin/../../lib/gcc/pic32c/8.3.1/../../../../pic32c/lib/thumb/v7e-m+fp/hard\libg-musl.a(__towrite.o)
 .debug_ranges  0x0000000000000de8       0x10 c:/program files/microchip/xc32/v4.60/bin/bin/../../lib/gcc/pic32c/8.3.1/../../../../pic32c/lib/thumb/v7e-m+fp/hard\libg-musl.a(writev.o)
 .debug_ranges  0x0000000000000df8       0x10 c:/program files/microchip/xc32/v4.60/bin/bin/../../lib/gcc/pic32c/8.3.1/../../../../pic32c/lib/thumb/v7e-m+fp/hard\libg-musl.a(__overflow.o)
 .debug_ranges  0x0000000000000e08       0x18 c:/program files/microchip/xc32/v4.60/bin/bin/../../lib/gcc/pic32c/8.3.1/../../../../pic32c/lib/thumb/v7e-m+fp/hard\libg-musl.a(__fwrite.o)
 .debug_ranges  0x0000000000000e20       0xb0 c:/program files/microchip/xc32/v4.60/bin/bin/../../lib/gcc/pic32c/8.3.1/thumb/v7e-m+fp/hard\libgcc.a(_udivmoddi4.o)
 .debug_ranges  0x0000000000000ed0       0x10 c:/program files/microchip/xc32/v4.60/bin/bin/../../lib/gcc/pic32c/8.3.1/../../../../pic32c/lib/thumb/v7e-m+fp/hard\libpic32c.a(close.o)
 .debug_ranges  0x0000000000000ee0       0x10 c:/program files/microchip/xc32/v4.60/bin/bin/../../lib/gcc/pic32c/8.3.1/../../../../pic32c/lib/thumb/v7e-m+fp/hard\libpic32c.a(lseek.o)
 .debug_ranges  0x0000000000000ef0       0x10 c:/program files/microchip/xc32/v4.60/bin/bin/../../lib/gcc/pic32c/8.3.1/../../../../pic32c/lib/thumb/v7e-m+fp/hard\libc-size-musl.a(strlen.o)
 .debug_ranges  0x0000000000000f00       0x10 c:/program files/microchip/xc32/v4.60/bin/bin/../../lib/gcc/pic32c/8.3.1/../../../../pic32c/lib/thumb/v7e-m+fp/hard\liblmalloc-musl.a(lite_malloc.o)
 .debug_ranges  0x0000000000000f10       0x20 c:/program files/microchip/xc32/v4.60/bin/bin/../../lib/gcc/pic32c/8.3.1/../../../../pic32c/lib/thumb/v7e-m+fp/hard\liblmalloc-musl.a(lite_free.o)
 .debug_ranges  0x0000000000000f30       0x10 c:/program files/microchip/xc32/v4.60/bin/bin/../../lib/gcc/pic32c/8.3.1/../../../../pic32c/lib/thumb/v7e-m+fp/hard\libg-musl.a(expand_heap.o)
 .debug_ranges  0x0000000000000f40       0x20 c:/program files/microchip/xc32/v4.60/bin/bin/../../lib/gcc/pic32c/8.3.1/../../../../pic32c/lib/thumb/v7e-m+fp/hard\libpic32c.a(sbrk.o)
 .debug_ranges  0x0000000000000f60       0x10 c:/program files/microchip/xc32/v4.60/bin/bin/../../lib/gcc/pic32c/8.3.1/../../../../pic32c/lib/thumb/v7e-m+fp/hard\libpic32c.a(pic32_data_init_clear.o)
 .debug_ranges  0x0000000000000f70       0x10 c:/program files/microchip/xc32/v4.60/bin/bin/../../lib/gcc/pic32c/8.3.1/../../../../pic32c/lib/thumb/v7e-m+fp/hard\libpic32c.a(pic32_data_init_copy.o)

.debug_line     0x0000000000000000     0xb879
 .debug_line    0x0000000000000000      0x353 build/default/debug/_ext/1984496892/plib_clock.o
 .debug_line    0x0000000000000353      0x63d build/default/debug/_ext/1865161661/plib_dmac.o
 .debug_line    0x0000000000000990      0x18f build/default/debug/_ext/1986646378/plib_evsys.o
 .debug_line    0x0000000000000b1f      0x3da build/default/debug/_ext/1865468468/plib_nvic.o
 .debug_line    0x0000000000000ef9      0x5b9 build/default/debug/_ext/1593096446/plib_nvmctrl.o
 .debug_line    0x00000000000014b2      0x33d build/default/debug/_ext/1865521619/plib_port.o
 .debug_line    0x00000000000017ef      0x4a7 build/default/debug/_ext/17022449/plib_sercom1_spi_master.o
 .debug_line    0x0000000000001c96      0x421 build/default/debug/_ext/1827571544/plib_systick.o
 .debug_line    0x00000000000020b7      0x3a0 build/default/debug/_ext/60181570/plib_tcc0.o
 .debug_line    0x0000000000002457      0x120 build/default/debug/_ext/1865643529/plib_trng.o
 .debug_line    0x0000000000002577      0x151 build/default/debug/_ext/163028504/xc32_monitor.o
 .debug_line    0x00000000000026c8      0x395 build/default/debug/_ext/1171490990/initialization.o
 .debug_line    0x0000000000002a5d       0xbb build/default/debug/_ext/1171490990/interrupts.o
 .debug_line    0x0000000000002b18       0xcd build/default/debug/_ext/1171490990/exceptions.o
 .debug_line    0x0000000000002be5      0x248 build/default/debug/_ext/1171490990/startup_xc32.o
 .debug_line    0x0000000000002e2d      0x1db build/default/debug/_ext/1171490990/freertos_hooks.o
 .debug_line    0x0000000000003008      0x371 build/default/debug/_ext/246609638/port.o
 .debug_line    0x0000000000003379      0x250 build/default/debug/_ext/1665200909/heap_1.o
 .debug_line    0x00000000000035c9      0x305 build/default/debug/_ext/404212886/list.o
 .debug_line    0x00000000000038ce     0x1cd7 build/default/debug/_ext/404212886/FreeRTOS_tasks.o
 .debug_line    0x00000000000055a5      0x22a build/default/debug/_ext/1360937237/main.o
 .debug_line    0x00000000000057cf      0x575 build/default/debug/_ext/1360937237/neopixel.o
 .debug_line    0x0000000000005d44      0x40a build/default/debug/_ext/1360937237/actuator.o
 .debug_line    0x000000000000614e      0x61b build/default/debug/_ext/504274921/plib_sercom5_usart.o
 .debug_line    0x0000000000006769       0xa7 c:/program files/microchip/xc32/v4.60/bin/bin/../../lib/gcc/pic32c/8.3.1/../../../../pic32c/lib/thumb/v7e-m+fp/hard\libpic32c.a(data_init.o)
 .debug_line    0x0000000000006810       0xf9 c:/program files/microchip/xc32/v4.60/bin/bin/../../lib/gcc/pic32c/8.3.1/../../../../pic32c/lib/thumb/v7e-m+fp/hard\libc-size-musl.a(memcpy.o)
 .debug_line    0x0000000000006909       0xe3 c:/program files/microchip/xc32/v4.60/bin/bin/../../lib/gcc/pic32c/8.3.1/../../../../pic32c/lib/thumb/v7e-m+fp/hard\libc-size-musl.a(memset.o)
 .debug_line    0x00000000000069ec      0x1c7 c:/program files/microchip/xc32/v4.60/bin/bin/../../lib/gcc/pic32c/8.3.1/../../../../pic32c/lib/thumb/v7e-m+fp/hard\libg-musl.a(__libc_start_main.o)
 .debug_line    0x0000000000006bb3       0xb5 c:/program files/microchip/xc32/v4.60/bin/bin/../../lib/gcc/pic32c/8.3.1/../../../../pic32c/lib/thumb/v7e-m+fp/hard\libg-musl.a(libc.o)
 .debug_line    0x0000000000006c68      0x1b2 c:/program files/microchip/xc32/v4.60/bin/bin/../../lib/gcc/pic32c/8.3.1/../../../../pic32c/lib/thumb/v7e-m+fp/hard\libg-musl.a(__sio_printf_nu.o)
 .debug_line    0x0000000000006e1a      0x188 c:/program files/microchip/xc32/v4.60/bin/bin/../../lib/gcc/pic32c/8.3.1/../../../../pic32c/lib/thumb/v7e-m+fp/hard\libg-musl.a(__fmt_u.o)
 .debug_line    0x0000000000006fa2      0x200 c:/program files/microchip/xc32/v4.60/bin/bin/../../lib/gcc/pic32c/8.3.1/../../../../pic32c/lib/thumb/v7e-m+fp/hard\libg-musl.a(__pop_int.o)
 .debug_line    0x00000000000071a2      0x1e0 c:/program files/microchip/xc32/v4.60/bin/bin/../../lib/gcc/pic32c/8.3.1/../../../../pic32c/lib/thumb/v7e-m+fp/hard\libg-musl.a(__pop_ptr.o)
 .debug_line    0x0000000000007382      0x692 c:/program files/microchip/xc32/v4.60/bin/bin/../../lib/gcc/pic32c/8.3.1/../../../../pic32c/lib/thumb/v7e-m+fp/hard\libg-musl.a(__printf_core.o)
 .debug_line    0x0000000000007a14      0x1c5 c:/program files/microchip/xc32/v4.60/bin/bin/../../lib/gcc/pic32c/8.3.1/../../../../pic32c/lib/thumb/v7e-m+fp/hard\libg-musl.a(stdin.o)
 .debug_line    0x0000000000007bd9      0x181 c:/program files/microchip/xc32/v4.60/bin/bin/../../lib/gcc/pic32c/8.3.1/../../../../pic32c/lib/thumb/v7e-m+fp/hard\libg-musl.a(stdout.o)
 .debug_line    0x0000000000007d5a      0x1c7 c:/program files/microchip/xc32/v4.60/bin/bin/../../lib/gcc/pic32c/8.3.1/../../../../pic32c/lib/thumb/v7e-m+fp/hard\libg-musl.a(puts.o)
 .debug_line    0x0000000000007f21      0x12b c:/program files/microchip/xc32/v4.60/bin/bin/../../lib/gcc/pic32c/8.3.1/../../../../pic32c/lib/thumb/v7e-m+fp/hard\libg-musl.a(setbuf.o)
 .debug_line    0x000000000000804c      0x167 c:/program files/microchip/xc32/v4.60/bin/bin/../../lib/gcc/pic32c/8.3.1/../../../../pic32c/lib/thumb/v7e-m+fp/hard\libg-musl.a(atoi.o)
 .debug_line    0x00000000000081b3      0x157 c:/program files/microchip/xc32/v4.60/bin/bin/../../lib/gcc/pic32c/8.3.1/../../../../pic32c/lib/thumb/v7e-m+fp/hard\libg-musl.a(tolower.o)
 .debug_line    0x000000000000830a       0xfb c:/program files/microchip/xc32/v4.60/bin/bin/../../lib/gcc/pic32c/8.3.1/../../../../pic32c/lib/thumb/v7e-m+fp/hard\libg-musl.a(__environ.o)
 .debug_line    0x0000000000008405       0x9a c:/program files/microchip/xc32/v4.60/bin/bin/../../lib/gcc/pic32c/8.3.1/../../../../pic32c/lib/thumb/v7e-m+fp/hard\libg-musl.a(__errno_location.o)
 .debug_line    0x000000000000849f      0x168 c:/program files/microchip/xc32/v4.60/bin/bin/../../lib/gcc/pic32c/8.3.1/../../../../pic32c/lib/thumb/v7e-m+fp/hard\libg-musl.a(__int_vfprintf.o)
 .debug_line    0x0000000000008607      0x22e c:/program files/microchip/xc32/v4.60/bin/bin/../../lib/gcc/pic32c/8.3.1/../../../../pic32c/lib/thumb/v7e-m+fp/hard\libg-musl.a(fputs.o)
 .debug_line    0x0000000000008835      0x1cb c:/program files/microchip/xc32/v4.60/bin/bin/../../lib/gcc/pic32c/8.3.1/../../../../pic32c/lib/thumb/v7e-m+fp/hard\libg-musl.a(__cvt_u.o)
 .debug_line    0x0000000000008a00      0x165 c:/program files/microchip/xc32/v4.60/bin/bin/../../lib/gcc/pic32c/8.3.1/../../../../pic32c/lib/thumb/v7e-m+fp/hard\libg-musl.a(__pop_float.o)
 .debug_line    0x0000000000008b65      0x235 c:/program files/microchip/xc32/v4.60/bin/bin/../../lib/gcc/pic32c/8.3.1/../../../../pic32c/lib/thumb/v7e-m+fp/hard\libg-musl.a(__stdio_read.o)
 .debug_line    0x0000000000008d9a      0x1df c:/program files/microchip/xc32/v4.60/bin/bin/../../lib/gcc/pic32c/8.3.1/../../../../pic32c/lib/thumb/v7e-m+fp/hard\libg-musl.a(__towrite_rw.o)
 .debug_line    0x0000000000008f79      0x1f1 c:/program files/microchip/xc32/v4.60/bin/bin/../../lib/gcc/pic32c/8.3.1/../../../../pic32c/lib/thumb/v7e-m+fp/hard\libg-musl.a(fwrite.o)
 .debug_line    0x000000000000916a      0x19e c:/program files/microchip/xc32/v4.60/bin/bin/../../lib/gcc/pic32c/8.3.1/../../../../pic32c/lib/thumb/v7e-m+fp/hard\libg-musl.a(putc.o)
 .debug_line    0x0000000000009308      0x215 c:/program files/microchip/xc32/v4.60/bin/bin/../../lib/gcc/pic32c/8.3.1/../../../../pic32c/lib/thumb/v7e-m+fp/hard\libg-musl.a(setvbuf.o)
 .debug_line    0x000000000000951d      0x158 c:/program files/microchip/xc32/v4.60/bin/bin/../../lib/gcc/pic32c/8.3.1/../../../../pic32c/lib/thumb/v7e-m+fp/hard\libg-musl.a(readv.o)
 .debug_line    0x0000000000009675       0xc8 c:/program files/microchip/xc32/v4.60/bin/bin/../../lib/gcc/pic32c/8.3.1/../../../../pic32c/lib/thumb/v7e-m+fp/hard\libg-musl.a(__init_stdio.o)
 .debug_line    0x000000000000973d      0x292 c:/program files/microchip/xc32/v4.60/bin/bin/../../lib/gcc/pic32c/8.3.1/../../../../pic32c/lib/thumb/v7e-m+fp/hard\libg-musl.a(__out.o)
 .debug_line    0x00000000000099cf      0x166 c:/program files/microchip/xc32/v4.60/bin/bin/../../lib/gcc/pic32c/8.3.1/../../../../pic32c/lib/thumb/v7e-m+fp/hard\libg-musl.a(__putc.o)
 .debug_line    0x0000000000009b35      0x1d0 c:/program files/microchip/xc32/v4.60/bin/bin/../../lib/gcc/pic32c/8.3.1/../../../../pic32c/lib/thumb/v7e-m+fp/hard\libg-musl.a(__stderr.o)
 .debug_line    0x0000000000009d05      0x2e0 c:/program files/microchip/xc32/v4.60/bin/bin/../../lib/gcc/pic32c/8.3.1/../../../../pic32c/lib/thumb/v7e-m+fp/hard\libg-musl.a(__stdio_close.o)
 .debug_line    0x0000000000009fe5      0x31e c:/program files/microchip/xc32/v4.60/bin/bin/../../lib/gcc/pic32c/8.3.1/../../../../pic32c/lib/thumb/v7e-m+fp/hard\libg-musl.a(__stdio_write.o)
 .debug_line    0x000000000000a303      0x1d0 c:/program files/microchip/xc32/v4.60/bin/bin/../../lib/gcc/pic32c/8.3.1/../../../../pic32c/lib/thumb/v7e-m+fp/hard\libg-musl.a(__stdout.o)
 .debug_line    0x000000000000a4d3      0x17d c:/program files/microchip/xc32/v4.60/bin/bin/../../lib/gcc/pic32c/8.3.1/../../../../pic32c/lib/thumb/v7e-m+fp/hard\libg-musl.a(__towrite.o)
 .debug_line    0x000000000000a650      0x159 c:/program files/microchip/xc32/v4.60/bin/bin/../../lib/gcc/pic32c/8.3.1/../../../../pic32c/lib/thumb/v7e-m+fp/hard\libg-musl.a(writev.o)
 .debug_line    0x000000000000a7a9      0x1f4 c:/program files/microchip/xc32/v4.60/bin/bin/../../lib/gcc/pic32c/8.3.1/../../../../pic32c/lib/thumb/v7e-m+fp/hard\libg-musl.a(__overflow.o)
 .debug_line    0x000000000000a99d      0x1e2 c:/program files/microchip/xc32/v4.60/bin/bin/../../lib/gcc/pic32c/8.3.1/../../../../pic32c/lib/thumb/v7e-m+fp/hard\libg-musl.a(__fwrite.o)
 .debug_line    0x000000000000ab7f       0x91 c:/program files/microchip/xc32/v4.60/bin/bin/../../lib/gcc/pic32c/8.3.1/thumb/v7e-m+fp/hard\libgcc.a(_aeabi_uldivmod.o)
 .debug_line    0x000000000000ac10      0x360 c:/program files/microchip/xc32/v4.60/bin/bin/../../lib/gcc/pic32c/8.3.1/thumb/v7e-m+fp/hard\libgcc.a(_udivmoddi4.o)
 .debug_line    0x000000000000af70       0x91 c:/program files/microchip/xc32/v4.60/bin/bin/../../lib/gcc/pic32c/8.3.1/thumb/v7e-m+fp/hard\libgcc.a(_dvmd_tls.o)
 .debug_line    0x000000000000b001       0x59 c:/program files/microchip/xc32/v4.60/bin/bin/../../lib/gcc/pic32c/8.3.1/../../../../pic32c/lib/thumb/v7e-m+fp/hard\libpic32c.a(close.o)
 .debug_line    0x000000000000b05a       0x59 c:/program files/microchip/xc32/v4.60/bin/bin/../../lib/gcc/pic32c/8.3.1/../../../../pic32c/lib/thumb/v7e-m+fp/hard\libpic32c.a(lseek.o)
 .debug_line    0x000000000000b0b3       0xe6 c:/program files/microchip/xc32/v4.60/bin/bin/../../lib/gcc/pic32c/8.3.1/../../../../pic32c/lib/thumb/v7e-m+fp/hard\libc-size-musl.a(strlen.o)
 .debug_line    0x000000000000b199      0x1ca c:/program files/microchip/xc32/v4.60/bin/bin/../../lib/gcc/pic32c/8.3.1/../../../../pic32c/lib/thumb/v7e-m+fp/hard\liblmalloc-musl.a(lite_malloc.o)
 .debug_line    0x000000000000b363      0x269 c:/program files/microchip/xc32/v4.60/bin/bin/../../lib/gcc/pic32c/8.3.1/../../../../pic32c/lib/thumb/v7e-m+fp/hard\liblmalloc-musl.a(lite_free.o)
 .debug_line    0x000000000000b5cc       0xef c:/program files/microchip/xc32/v4.60/bin/bin/../../lib/gcc/pic32c/8.3.1/../../../../pic32c/lib/thumb/v7e-m+fp/hard\libg-musl.a(expand_heap.o)
 .debug_line    0x000000000000b6bb       0xd2 c:/program files/microchip/xc32/v4.60/bin/bin/../../lib/gcc/pic32c/8.3.1/../../../../pic32c/lib/thumb/v7e-m+fp/hard\libpic32c.a(sbrk.o)
 .debug_line    0x000000000000b78d       0x72 c:/program files/microchip/xc32/v4.60/bin/bin/../../lib/gcc/pic32c/8.3.1/../../../../pic32c/lib/thumb/v7e-m+fp/hard\libpic32c.a(pic32_data_init_clear.o)
 .debug_line    0x000000000000b7ff       0x7a c:/program files/microchip/xc32/v4.60/bin/bin/../../lib/gcc/pic32c/8.3.1/../../../../pic32c/lib/thumb/v7e-m+fp/hard\libpic32c.a(pic32_data_init_copy.o)

.debug_str      0x0000000000000000    0x12624
 .debug_str     0x0000000000000000      0x684 build/default/debug/_ext/1984496892/plib_clock.o
 .debug_str     0x0000000000000684      0x8f8 build/default/debug/_ext/1865161661/plib_dmac.o
 .debug_str     0x0000000000000f7c      0x45a build/default/debug/_ext/1986646378/plib_evsys.o
 .debug_str     0x00000000000013d6      0xcb1 build/default/debug/_ext/1865468468/plib_nvic.o
 .debug_str     0x0000000000002087      0x6be build/default/debug/_ext/1593096446/plib_nvmctrl.o
 .debug_str     0x0000000000002745      0x8cf build/default/debug/_ext/1865521619/plib_port.o
 .debug_str     0x0000000000003014      0x737 build/default/debug/_ext/17022449/plib_sercom1_spi_master.o
 .debug_str     0x000000000000374b      0x4fd build/default/debug/_ext/1827571544/plib_systick.o
 .debug_str     0x0000000000003c48      0x588 build/default/debug/_ext/60181570/plib_tcc0.o
 .debug_str     0x00000000000041d0      0x352 build/default/debug/_ext/1865643529/plib_trng.o
 .debug_str     0x0000000000004522      0x305 build/default/debug/_ext/163028504/xc32_monitor.o
 .debug_str     0x0000000000004827      0x3c1 build/default/debug/_ext/1171490990/initialization.o
 .debug_str     0x0000000000004be8      0xec3 build/default/debug/_ext/1171490990/interrupts.o
 .debug_str     0x0000000000005aab      0x31c build/default/debug/_ext/1171490990/exceptions.o
 .debug_str     0x0000000000005dc7      0x456 build/default/debug/_ext/1171490990/startup_xc32.o
 .debug_str     0x000000000000621d      0x39f build/default/debug/_ext/1171490990/freertos_hooks.o
 .debug_str     0x00000000000065bc      0x48d build/default/debug/_ext/246609638/port.o
 .debug_str     0x0000000000006a49      0x3b5 build/default/debug/_ext/1665200909/heap_1.o
 .debug_str     0x0000000000006dfe      0x3ea build/default/debug/_ext/404212886/list.o
 .debug_str     0x00000000000071e8     0x1193 build/default/debug/_ext/404212886/FreeRTOS_tasks.o
 .debug_str     0x000000000000837b      0x4bc build/default/debug/_ext/1360937237/main.o
 .debug_str     0x0000000000008837      0x692 build/default/debug/_ext/1360937237/neopixel.o
 .debug_str     0x0000000000008ec9      0x484 build/default/debug/_ext/1360937237/actuator.o
 .debug_str     0x000000000000934d      0x8ce build/default/debug/_ext/504274921/plib_sercom5_usart.o
 .debug_str     0x0000000000009c1b      0x206 c:/program files/microchip/xc32/v4.60/bin/bin/../../lib/gcc/pic32c/8.3.1/../../../../pic32c/lib/thumb/v7e-m+fp/hard\libpic32c.a(data_init.o)
 .debug_str     0x0000000000009e21      0x22f c:/program files/microchip/xc32/v4.60/bin/bin/../../lib/gcc/pic32c/8.3.1/../../../../pic32c/lib/thumb/v7e-m+fp/hard\libc-size-musl.a(memcpy.o)
 .debug_str     0x000000000000a050      0x21b c:/program files/microchip/xc32/v4.60/bin/bin/../../lib/gcc/pic32c/8.3.1/../../../../pic32c/lib/thumb/v7e-m+fp/hard\libc-size-musl.a(memset.o)
 .debug_str     0x000000000000a26b      0x3d4 c:/program files/microchip/xc32/v4.60/bin/bin/../../lib/gcc/pic32c/8.3.1/../../../../pic32c/lib/thumb/v7e-m+fp/hard\libg-musl.a(__libc_start_main.o)
 .debug_str     0x000000000000a63f      0x33f c:/program files/microchip/xc32/v4.60/bin/bin/../../lib/gcc/pic32c/8.3.1/../../../../pic32c/lib/thumb/v7e-m+fp/hard\libg-musl.a(libc.o)
 .debug_str     0x000000000000a97e      0x30a c:/program files/microchip/xc32/v4.60/bin/bin/../../lib/gcc/pic32c/8.3.1/../../../../pic32c/lib/thumb/v7e-m+fp/hard\libg-musl.a(__sio_printf_nu.o)
 .debug_str     0x000000000000ac88      0x2ff c:/program files/microchip/xc32/v4.60/bin/bin/../../lib/gcc/pic32c/8.3.1/../../../../pic32c/lib/thumb/v7e-m+fp/hard\libg-musl.a(__fmt_u.o)
 .debug_str     0x000000000000af87      0x2d5 c:/program files/microchip/xc32/v4.60/bin/bin/../../lib/gcc/pic32c/8.3.1/../../../../pic32c/lib/thumb/v7e-m+fp/hard\libg-musl.a(__pop_int.o)
 .debug_str     0x000000000000b25c      0x2d7 c:/program files/microchip/xc32/v4.60/bin/bin/../../lib/gcc/pic32c/8.3.1/../../../../pic32c/lib/thumb/v7e-m+fp/hard\libg-musl.a(__pop_ptr.o)
 .debug_str     0x000000000000b533      0x3f1 c:/program files/microchip/xc32/v4.60/bin/bin/../../lib/gcc/pic32c/8.3.1/../../../../pic32c/lib/thumb/v7e-m+fp/hard\libg-musl.a(__printf_core.o)
 .debug_str     0x000000000000b924      0x37e c:/program files/microchip/xc32/v4.60/bin/bin/../../lib/gcc/pic32c/8.3.1/../../../../pic32c/lib/thumb/v7e-m+fp/hard\libg-musl.a(stdin.o)
 .debug_str     0x000000000000bca2      0x312 c:/program files/microchip/xc32/v4.60/bin/bin/../../lib/gcc/pic32c/8.3.1/../../../../pic32c/lib/thumb/v7e-m+fp/hard\libg-musl.a(stdout.o)
 .debug_str     0x000000000000bfb4      0x34e c:/program files/microchip/xc32/v4.60/bin/bin/../../lib/gcc/pic32c/8.3.1/../../../../pic32c/lib/thumb/v7e-m+fp/hard\libg-musl.a(puts.o)
 .debug_str     0x000000000000c302      0x227 c:/program files/microchip/xc32/v4.60/bin/bin/../../lib/gcc/pic32c/8.3.1/../../../../pic32c/lib/thumb/v7e-m+fp/hard\libg-musl.a(setbuf.o)
 .debug_str     0x000000000000c529      0x226 c:/program files/microchip/xc32/v4.60/bin/bin/../../lib/gcc/pic32c/8.3.1/../../../../pic32c/lib/thumb/v7e-m+fp/hard\libg-musl.a(atoi.o)
 .debug_str     0x000000000000c74f      0x253 c:/program files/microchip/xc32/v4.60/bin/bin/../../lib/gcc/pic32c/8.3.1/../../../../pic32c/lib/thumb/v7e-m+fp/hard\libg-musl.a(tolower.o)
 .debug_str     0x000000000000c9a2      0x23f c:/program files/microchip/xc32/v4.60/bin/bin/../../lib/gcc/pic32c/8.3.1/../../../../pic32c/lib/thumb/v7e-m+fp/hard\libg-musl.a(__environ.o)
 .debug_str     0x000000000000cbe1      0x233 c:/program files/microchip/xc32/v4.60/bin/bin/../../lib/gcc/pic32c/8.3.1/../../../../pic32c/lib/thumb/v7e-m+fp/hard\libg-musl.a(__errno_location.o)
 .debug_str     0x000000000000ce14      0x2f3 c:/program files/microchip/xc32/v4.60/bin/bin/../../lib/gcc/pic32c/8.3.1/../../../../pic32c/lib/thumb/v7e-m+fp/hard\libg-musl.a(__int_vfprintf.o)
 .debug_str     0x000000000000d107      0x342 c:/program files/microchip/xc32/v4.60/bin/bin/../../lib/gcc/pic32c/8.3.1/../../../../pic32c/lib/thumb/v7e-m+fp/hard\libg-musl.a(fputs.o)
 .debug_str     0x000000000000d449      0x2bb c:/program files/microchip/xc32/v4.60/bin/bin/../../lib/gcc/pic32c/8.3.1/../../../../pic32c/lib/thumb/v7e-m+fp/hard\libg-musl.a(__cvt_u.o)
 .debug_str     0x000000000000d704      0x2ca c:/program files/microchip/xc32/v4.60/bin/bin/../../lib/gcc/pic32c/8.3.1/../../../../pic32c/lib/thumb/v7e-m+fp/hard\libg-musl.a(__pop_float.o)
 .debug_str     0x000000000000d9ce      0x36c c:/program files/microchip/xc32/v4.60/bin/bin/../../lib/gcc/pic32c/8.3.1/../../../../pic32c/lib/thumb/v7e-m+fp/hard\libg-musl.a(__stdio_read.o)
 .debug_str     0x000000000000dd3a      0x347 c:/program files/microchip/xc32/v4.60/bin/bin/../../lib/gcc/pic32c/8.3.1/../../../../pic32c/lib/thumb/v7e-m+fp/hard\libg-musl.a(__towrite_rw.o)
 .debug_str     0x000000000000e081      0x2dd c:/program files/microchip/xc32/v4.60/bin/bin/../../lib/gcc/pic32c/8.3.1/../../../../pic32c/lib/thumb/v7e-m+fp/hard\libg-musl.a(fwrite.o)
 .debug_str     0x000000000000e35e      0x2f4 c:/program files/microchip/xc32/v4.60/bin/bin/../../lib/gcc/pic32c/8.3.1/../../../../pic32c/lib/thumb/v7e-m+fp/hard\libg-musl.a(putc.o)
 .debug_str     0x000000000000e652      0x31c c:/program files/microchip/xc32/v4.60/bin/bin/../../lib/gcc/pic32c/8.3.1/../../../../pic32c/lib/thumb/v7e-m+fp/hard\libg-musl.a(setvbuf.o)
 .debug_str     0x000000000000e96e      0x256 c:/program files/microchip/xc32/v4.60/bin/bin/../../lib/gcc/pic32c/8.3.1/../../../../pic32c/lib/thumb/v7e-m+fp/hard\libg-musl.a(readv.o)
 .debug_str     0x000000000000ebc4      0x2a4 c:/program files/microchip/xc32/v4.60/bin/bin/../../lib/gcc/pic32c/8.3.1/../../../../pic32c/lib/thumb/v7e-m+fp/hard\libg-musl.a(__init_stdio.o)
 .debug_str     0x000000000000ee68      0x2e4 c:/program files/microchip/xc32/v4.60/bin/bin/../../lib/gcc/pic32c/8.3.1/../../../../pic32c/lib/thumb/v7e-m+fp/hard\libg-musl.a(__out.o)
 .debug_str     0x000000000000f14c      0x302 c:/program files/microchip/xc32/v4.60/bin/bin/../../lib/gcc/pic32c/8.3.1/../../../../pic32c/lib/thumb/v7e-m+fp/hard\libg-musl.a(__putc.o)
 .debug_str     0x000000000000f44e      0x377 c:/program files/microchip/xc32/v4.60/bin/bin/../../lib/gcc/pic32c/8.3.1/../../../../pic32c/lib/thumb/v7e-m+fp/hard\libg-musl.a(__stderr.o)
 .debug_str     0x000000000000f7c5      0x367 c:/program files/microchip/xc32/v4.60/bin/bin/../../lib/gcc/pic32c/8.3.1/../../../../pic32c/lib/thumb/v7e-m+fp/hard\libg-musl.a(__stdio_close.o)
 .debug_str     0x000000000000fb2c      0x350 c:/program files/microchip/xc32/v4.60/bin/bin/../../lib/gcc/pic32c/8.3.1/../../../../pic32c/lib/thumb/v7e-m+fp/hard\libg-musl.a(__stdio_write.o)
 .debug_str     0x000000000000fe7c      0x377 c:/program files/microchip/xc32/v4.60/bin/bin/../../lib/gcc/pic32c/8.3.1/../../../../pic32c/lib/thumb/v7e-m+fp/hard\libg-musl.a(__stdout.o)
 .debug_str     0x00000000000101f3      0x2f3 c:/program files/microchip/xc32/v4.60/bin/bin/../../lib/gcc/pic32c/8.3.1/../../../../pic32c/lib/thumb/v7e-m+fp/hard\libg-musl.a(__towrite.o)
 .debug_str     0x00000000000104e6      0x259 c:/program files/microchip/xc32/v4.60/bin/bin/../../lib/gcc/pic32c/8.3.1/../../../../pic32c/lib/thumb/v7e-m+fp/hard\libg-musl.a(writev.o)
 .debug_str     0x000000000001073f      0x348 c:/program files/microchip/xc32/v4.60/bin/bin/../../lib/gcc/pic32c/8.3.1/../../../../pic32c/lib/thumb/v7e-m+fp/hard\libg-musl.a(__overflow.o)
 .debug_str     0x0000000000010a87      0x30c c:/program files/microchip/xc32/v4.60/bin/bin/../../lib/gcc/pic32c/8.3.1/../../../../pic32c/lib/thumb/v7e-m+fp/hard\libg-musl.a(__fwrite.o)
 .debug_str     0x0000000000010d93       0xd6 c:/program files/microchip/xc32/v4.60/bin/bin/../../lib/gcc/pic32c/8.3.1/thumb/v7e-m+fp/hard\libgcc.a(_aeabi_uldivmod.o)
 .debug_str     0x0000000000010e69      0x2cd c:/program files/microchip/xc32/v4.60/bin/bin/../../lib/gcc/pic32c/8.3.1/thumb/v7e-m+fp/hard\libgcc.a(_udivmoddi4.o)
 .debug_str     0x0000000000011136       0xda c:/program files/microchip/xc32/v4.60/bin/bin/../../lib/gcc/pic32c/8.3.1/thumb/v7e-m+fp/hard\libgcc.a(_dvmd_tls.o)
 .debug_str     0x0000000000011210      0x1c7 c:/program files/microchip/xc32/v4.60/bin/bin/../../lib/gcc/pic32c/8.3.1/../../../../pic32c/lib/thumb/v7e-m+fp/hard\libpic32c.a(close.o)
 .debug_str     0x00000000000113d7      0x1c7 c:/program files/microchip/xc32/v4.60/bin/bin/../../lib/gcc/pic32c/8.3.1/../../../../pic32c/lib/thumb/v7e-m+fp/hard\libpic32c.a(lseek.o)
 .debug_str     0x000000000001159e      0x221 c:/program files/microchip/xc32/v4.60/bin/bin/../../lib/gcc/pic32c/8.3.1/../../../../pic32c/lib/thumb/v7e-m+fp/hard\libc-size-musl.a(strlen.o)
 .debug_str     0x00000000000117bf      0x309 c:/program files/microchip/xc32/v4.60/bin/bin/../../lib/gcc/pic32c/8.3.1/../../../../pic32c/lib/thumb/v7e-m+fp/hard\liblmalloc-musl.a(lite_malloc.o)
 .debug_str     0x0000000000011ac8      0x30b c:/program files/microchip/xc32/v4.60/bin/bin/../../lib/gcc/pic32c/8.3.1/../../../../pic32c/lib/thumb/v7e-m+fp/hard\liblmalloc-musl.a(lite_free.o)
 .debug_str     0x0000000000011dd3      0x2af c:/program files/microchip/xc32/v4.60/bin/bin/../../lib/gcc/pic32c/8.3.1/../../../../pic32c/lib/thumb/v7e-m+fp/hard\libg-musl.a(expand_heap.o)
 .debug_str     0x0000000000012082      0x1e6 c:/program files/microchip/xc32/v4.60/bin/bin/../../lib/gcc/pic32c/8.3.1/../../../../pic32c/lib/thumb/v7e-m+fp/hard\libpic32c.a(sbrk.o)
 .debug_str     0x0000000000012268      0x1df c:/program files/microchip/xc32/v4.60/bin/bin/../../lib/gcc/pic32c/8.3.1/../../../../pic32c/lib/thumb/v7e-m+fp/hard\libpic32c.a(pic32_data_init_clear.o)
 .debug_str     0x0000000000012447      0x1dd c:/program files/microchip/xc32/v4.60/bin/bin/../../lib/gcc/pic32c/8.3.1/../../../../pic32c/lib/thumb/v7e-m+fp/hard\libpic32c.a(pic32_data_init_copy.o)

.debug_frame    0x0000000000000000     0x1e80
 .debug_frame   0x0000000000000000       0x20 build/default/debug/_ext/1984496892/plib_clock.o
 .debug_frame   0x0000000000000020      0x178 build/default/debug/_ext/1865161661/plib_dmac.o
 .debug_frame   0x0000000000000198       0x60 build/default/debug/_ext/1986646378/plib_evsys.o
 .debug_frame   0x00000000000001f8       0x7c build/default/debug/_ext/1865468468/plib_nvic.o
 .debug_frame   0x0000000000000274      0x1d8 build/default/debug/_ext/1593096446/plib_nvmctrl.o
 .debug_frame   0x000000000000044c       0xe4 build/default/debug/_ext/1865521619/plib_port.o
 .debug_frame   0x0000000000000530       0x9c build/default/debug/_ext/17022449/plib_sercom1_spi_master.o
 .debug_frame   0x00000000000005cc      0x138 build/default/debug/_ext/1827571544/plib_systick.o
 .debug_frame   0x0000000000000704       0xe0 build/default/debug/_ext/60181570/plib_tcc0.o
 .debug_frame   0x00000000000007e4       0x30 build/default/debug/_ext/1865643529/plib_trng.o
 .debug_frame   0x0000000000000814       0x48 build/default/debug/_ext/163028504/xc32_monitor.o
 .debug_frame   0x000000000000085c       0x28 build/default/debug/_ext/1171490990/initialization.o
 .debug_frame   0x0000000000000884       0x20 build/default/debug/_ext/1171490990/interrupts.o
 .debug_frame   0x00000000000008a4       0x70 build/default/debug/_ext/1171490990/exceptions.o
 .debug_frame   0x0000000000000914       0x38 build/default/debug/_ext/1171490990/startup_xc32.o
 .debug_frame   0x000000000000094c       0x6c build/default/debug/_ext/1171490990/freertos_hooks.o
 .debug_frame   0x00000000000009b8       0xe8 build/default/debug/_ext/246609638/port.o
 .debug_frame   0x0000000000000aa0       0x6c build/default/debug/_ext/1665200909/heap_1.o
 .debug_frame   0x0000000000000b0c       0x6c build/default/debug/_ext/404212886/list.o
 .debug_frame   0x0000000000000b78      0x50c build/default/debug/_ext/404212886/FreeRTOS_tasks.o
 .debug_frame   0x0000000000001084       0x5c build/default/debug/_ext/1360937237/main.o
 .debug_frame   0x00000000000010e0      0x12c build/default/debug/_ext/1360937237/neopixel.o
 .debug_frame   0x000000000000120c       0x8c build/default/debug/_ext/1360937237/actuator.o
 .debug_frame   0x0000000000001298      0x184 build/default/debug/_ext/504274921/plib_sercom5_usart.o
 .debug_frame   0x000000000000141c       0x4c c:/program files/microchip/xc32/v4.60/bin/bin/../../lib/gcc/pic32c/8.3.1/../../../../pic32c/lib/thumb/v7e-m+fp/hard\libpic32c.a(data_init.o)
 .debug_frame   0x0000000000001468       0x2c c:/program files/microchip/xc32/v4.60/bin/bin/../../lib/gcc/pic32c/8.3.1/../../../../pic32c/lib/thumb/v7e-m+fp/hard\libc-size-musl.a(memcpy.o)
 .debug_frame   0x0000000000001494       0x20 c:/program files/microchip/xc32/v4.60/bin/bin/../../lib/gcc/pic32c/8.3.1/../../../../pic32c/lib/thumb/v7e-m+fp/hard\libc-size-musl.a(memset.o)
 .debug_frame   0x00000000000014b4       0x3c c:/program files/microchip/xc32/v4.60/bin/bin/../../lib/gcc/pic32c/8.3.1/../../../../pic32c/lib/thumb/v7e-m+fp/hard\libg-musl.a(__libc_start_main.o)
 .debug_frame   0x00000000000014f0       0x5c c:/program files/microchip/xc32/v4.60/bin/bin/../../lib/gcc/pic32c/8.3.1/../../../../pic32c/lib/thumb/v7e-m+fp/hard\libg-musl.a(__sio_printf_nu.o)
 .debug_frame   0x000000000000154c       0x34 c:/program files/microchip/xc32/v4.60/bin/bin/../../lib/gcc/pic32c/8.3.1/../../../../pic32c/lib/thumb/v7e-m+fp/hard\libg-musl.a(__fmt_u.o)
 .debug_frame   0x0000000000001580       0x28 c:/program files/microchip/xc32/v4.60/bin/bin/../../lib/gcc/pic32c/8.3.1/../../../../pic32c/lib/thumb/v7e-m+fp/hard\libg-musl.a(__pop_int.o)
 .debug_frame   0x00000000000015a8       0x28 c:/program files/microchip/xc32/v4.60/bin/bin/../../lib/gcc/pic32c/8.3.1/../../../../pic32c/lib/thumb/v7e-m+fp/hard\libg-musl.a(__pop_ptr.o)
 .debug_frame   0x00000000000015d0       0xd0 c:/program files/microchip/xc32/v4.60/bin/bin/../../lib/gcc/pic32c/8.3.1/../../../../pic32c/lib/thumb/v7e-m+fp/hard\libg-musl.a(__printf_core.o)
 .debug_frame   0x00000000000016a0       0x30 c:/program files/microchip/xc32/v4.60/bin/bin/../../lib/gcc/pic32c/8.3.1/../../../../pic32c/lib/thumb/v7e-m+fp/hard\libg-musl.a(stdin.o)
 .debug_frame   0x00000000000016d0       0x48 c:/program files/microchip/xc32/v4.60/bin/bin/../../lib/gcc/pic32c/8.3.1/../../../../pic32c/lib/thumb/v7e-m+fp/hard\libg-musl.a(stdout.o)
 .debug_frame   0x0000000000001718       0x28 c:/program files/microchip/xc32/v4.60/bin/bin/../../lib/gcc/pic32c/8.3.1/../../../../pic32c/lib/thumb/v7e-m+fp/hard\libg-musl.a(puts.o)
 .debug_frame   0x0000000000001740       0x20 c:/program files/microchip/xc32/v4.60/bin/bin/../../lib/gcc/pic32c/8.3.1/../../../../pic32c/lib/thumb/v7e-m+fp/hard\libg-musl.a(setbuf.o)
 .debug_frame   0x0000000000001760       0x28 c:/program files/microchip/xc32/v4.60/bin/bin/../../lib/gcc/pic32c/8.3.1/../../../../pic32c/lib/thumb/v7e-m+fp/hard\libg-musl.a(atoi.o)
 .debug_frame   0x0000000000001788       0x30 c:/program files/microchip/xc32/v4.60/bin/bin/../../lib/gcc/pic32c/8.3.1/../../../../pic32c/lib/thumb/v7e-m+fp/hard\libg-musl.a(tolower.o)
 .debug_frame   0x00000000000017b8       0x2c c:/program files/microchip/xc32/v4.60/bin/bin/../../lib/gcc/pic32c/8.3.1/../../../../pic32c/lib/thumb/v7e-m+fp/hard\libg-musl.a(__int_vfprintf.o)
 .debug_frame   0x00000000000017e4       0x2c c:/program files/microchip/xc32/v4.60/bin/bin/../../lib/gcc/pic32c/8.3.1/../../../../pic32c/lib/thumb/v7e-m+fp/hard\libg-musl.a(fputs.o)
 .debug_frame   0x0000000000001810       0x38 c:/program files/microchip/xc32/v4.60/bin/bin/../../lib/gcc/pic32c/8.3.1/../../../../pic32c/lib/thumb/v7e-m+fp/hard\libg-musl.a(__cvt_u.o)
 .debug_frame   0x0000000000001848       0x20 c:/program files/microchip/xc32/v4.60/bin/bin/../../lib/gcc/pic32c/8.3.1/../../../../pic32c/lib/thumb/v7e-m+fp/hard\libg-musl.a(__pop_float.o)
 .debug_frame   0x0000000000001868       0x30 c:/program files/microchip/xc32/v4.60/bin/bin/../../lib/gcc/pic32c/8.3.1/../../../../pic32c/lib/thumb/v7e-m+fp/hard\libg-musl.a(__stdio_read.o)
 .debug_frame   0x0000000000001898       0x20 c:/program files/microchip/xc32/v4.60/bin/bin/../../lib/gcc/pic32c/8.3.1/../../../../pic32c/lib/thumb/v7e-m+fp/hard\libg-musl.a(__towrite_rw.o)
 .debug_frame   0x00000000000018b8       0x3c c:/program files/microchip/xc32/v4.60/bin/bin/../../lib/gcc/pic32c/8.3.1/../../../../pic32c/lib/thumb/v7e-m+fp/hard\libg-musl.a(fwrite.o)
 .debug_frame   0x00000000000018f4       0x54 c:/program files/microchip/xc32/v4.60/bin/bin/../../lib/gcc/pic32c/8.3.1/../../../../pic32c/lib/thumb/v7e-m+fp/hard\libg-musl.a(putc.o)
 .debug_frame   0x0000000000001948       0x3c c:/program files/microchip/xc32/v4.60/bin/bin/../../lib/gcc/pic32c/8.3.1/../../../../pic32c/lib/thumb/v7e-m+fp/hard\libg-musl.a(setvbuf.o)
 .debug_frame   0x0000000000001984       0x30 c:/program files/microchip/xc32/v4.60/bin/bin/../../lib/gcc/pic32c/8.3.1/../../../../pic32c/lib/thumb/v7e-m+fp/hard\libg-musl.a(readv.o)
 .debug_frame   0x00000000000019b4       0x38 c:/program files/microchip/xc32/v4.60/bin/bin/../../lib/gcc/pic32c/8.3.1/../../../../pic32c/lib/thumb/v7e-m+fp/hard\libg-musl.a(__init_stdio.o)
 .debug_frame   0x00000000000019ec       0x3c c:/program files/microchip/xc32/v4.60/bin/bin/../../lib/gcc/pic32c/8.3.1/../../../../pic32c/lib/thumb/v7e-m+fp/hard\libg-musl.a(__out.o)
 .debug_frame   0x0000000000001a28       0x38 c:/program files/microchip/xc32/v4.60/bin/bin/../../lib/gcc/pic32c/8.3.1/../../../../pic32c/lib/thumb/v7e-m+fp/hard\libg-musl.a(__putc.o)
 .debug_frame   0x0000000000001a60       0x40 c:/program files/microchip/xc32/v4.60/bin/bin/../../lib/gcc/pic32c/8.3.1/../../../../pic32c/lib/thumb/v7e-m+fp/hard\libg-musl.a(__stderr.o)
 .debug_frame   0x0000000000001aa0       0x60 c:/program files/microchip/xc32/v4.60/bin/bin/../../lib/gcc/pic32c/8.3.1/../../../../pic32c/lib/thumb/v7e-m+fp/hard\libg-musl.a(__stdio_close.o)
 .debug_frame   0x0000000000001b00       0x58 c:/program files/microchip/xc32/v4.60/bin/bin/../../lib/gcc/pic32c/8.3.1/../../../../pic32c/lib/thumb/v7e-m+fp/hard\libg-musl.a(__stdio_write.o)
 .debug_frame   0x0000000000001b58       0x40 c:/program files/microchip/xc32/v4.60/bin/bin/../../lib/gcc/pic32c/8.3.1/../../../../pic32c/lib/thumb/v7e-m+fp/hard\libg-musl.a(__stdout.o)
 .debug_frame   0x0000000000001b98       0x38 c:/program files/microchip/xc32/v4.60/bin/bin/../../lib/gcc/pic32c/8.3.1/../../../../pic32c/lib/thumb/v7e-m+fp/hard\libg-musl.a(__towrite.o)
 .debug_frame   0x0000000000001bd0       0x30 c:/program files/microchip/xc32/v4.60/bin/bin/../../lib/gcc/pic32c/8.3.1/../../../../pic32c/lib/thumb/v7e-m+fp/hard\libg-musl.a(writev.o)
 .debug_frame   0x0000000000001c00       0x30 c:/program files/microchip/xc32/v4.60/bin/bin/../../lib/gcc/pic32c/8.3.1/../../../../pic32c/lib/thumb/v7e-m+fp/hard\libg-musl.a(__overflow.o)
 .debug_frame   0x0000000000001c30       0x40 c:/program files/microchip/xc32/v4.60/bin/bin/../../lib/gcc/pic32c/8.3.1/../../../../pic32c/lib/thumb/v7e-m+fp/hard\libg-musl.a(__fwrite.o)
 .debug_frame   0x0000000000001c70       0x2c c:/program files/microchip/xc32/v4.60/bin/bin/../../lib/gcc/pic32c/8.3.1/thumb/v7e-m+fp/hard\libgcc.a(_aeabi_uldivmod.o)
 .debug_frame   0x0000000000001c9c       0x38 c:/program files/microchip/xc32/v4.60/bin/bin/../../lib/gcc/pic32c/8.3.1/thumb/v7e-m+fp/hard\libgcc.a(_udivmoddi4.o)
 .debug_frame   0x0000000000001cd4       0x20 c:/program files/microchip/xc32/v4.60/bin/bin/../../lib/gcc/pic32c/8.3.1/../../../../pic32c/lib/thumb/v7e-m+fp/hard\libpic32c.a(close.o)
 .debug_frame   0x0000000000001cf4       0x20 c:/program files/microchip/xc32/v4.60/bin/bin/../../lib/gcc/pic32c/8.3.1/../../../../pic32c/lib/thumb/v7e-m+fp/hard\libpic32c.a(lseek.o)
 .debug_frame   0x0000000000001d14       0x20 c:/program files/microchip/xc32/v4.60/bin/bin/../../lib/gcc/pic32c/8.3.1/../../../../pic32c/lib/thumb/v7e-m+fp/hard\libc-size-musl.a(strlen.o)
 .debug_frame   0x0000000000001d34       0x30 c:/program files/microchip/xc32/v4.60/bin/bin/../../lib/gcc/pic32c/8.3.1/../../../../pic32c/lib/thumb/v7e-m+fp/hard\liblmalloc-musl.a(lite_malloc.o)
 .debug_frame   0x0000000000001d64       0x5c c:/program files/microchip/xc32/v4.60/bin/bin/../../lib/gcc/pic32c/8.3.1/../../../../pic32c/lib/thumb/v7e-m+fp/hard\liblmalloc-musl.a(lite_free.o)
 .debug_frame   0x0000000000001dc0       0x28 c:/program files/microchip/xc32/v4.60/bin/bin/../../lib/gcc/pic32c/8.3.1/../../../../pic32c/lib/thumb/v7e-m+fp/hard\libg-musl.a(expand_heap.o)
 .debug_frame   0x0000000000001de8       0x50 c:/program files/microchip/xc32/v4.60/bin/bin/../../lib/gcc/pic32c/8.3.1/../../../../pic32c/lib/thumb/v7e-m+fp/hard\libpic32c.a(sbrk.o)
 .debug_frame   0x0000000000001e38       0x20 c:/program files/microchip/xc32/v4.60/bin/bin/../../lib/gcc/pic32c/8.3.1/../../../../pic32c/lib/thumb/v7e-m+fp/hard\libpic32c.a(pic32_data_init_clear.o)
 .debug_frame   0x0000000000001e58       0x28 c:/program files/microchip/xc32/v4.60/bin/bin/../../lib/gcc/pic32c/8.3.1/../../../../pic32c/lib/thumb/v7e-m+fp/hard\libpic32c.a(pic32_data_init_copy.o)

.debug_loc      0x0000000000000000     0xb766
 .debug_loc     0x0000000000000000      0x8e1 build/default/debug/_ext/1865161661/plib_dmac.o
 .debug_loc     0x00000000000008e1       0xde build/default/debug/_ext/1986646378/plib_evsys.o
 .debug_loc     0x00000000000009bf      0x1ca build/default/debug/_ext/1865468468/plib_nvic.o
 .debug_loc     0x0000000000000b89      0x83e build/default/debug/_ext/1593096446/plib_nvmctrl.o
 .debug_loc     0x00000000000013c7      0x269 build/default/debug/_ext/1865521619/plib_port.o
 .debug_loc     0x0000000000001630      0x57d build/default/debug/_ext/17022449/plib_sercom1_spi_master.o
 .debug_loc     0x0000000000001bad      0x331 build/default/debug/_ext/1827571544/plib_systick.o
 .debug_loc     0x0000000000001ede      0x161 build/default/debug/_ext/60181570/plib_tcc0.o
 .debug_loc     0x000000000000203f      0x1c0 build/default/debug/_ext/163028504/xc32_monitor.o
 .debug_loc     0x00000000000021ff       0x45 build/default/debug/_ext/1171490990/initialization.o
 .debug_loc     0x0000000000002244       0x4a build/default/debug/_ext/1171490990/startup_xc32.o
 .debug_loc     0x000000000000228e       0x82 build/default/debug/_ext/1171490990/freertos_hooks.o
 .debug_loc     0x0000000000002310      0x13a build/default/debug/_ext/246609638/port.o
 .debug_loc     0x000000000000244a       0xd7 build/default/debug/_ext/1665200909/heap_1.o
 .debug_loc     0x0000000000002521       0xb2 build/default/debug/_ext/404212886/list.o
 .debug_loc     0x00000000000025d3     0x2b5b build/default/debug/_ext/404212886/FreeRTOS_tasks.o
 .debug_loc     0x000000000000512e       0xe6 build/default/debug/_ext/1360937237/main.o
 .debug_loc     0x0000000000005214     0x232f build/default/debug/_ext/1360937237/neopixel.o
 .debug_loc     0x0000000000007543      0x273 build/default/debug/_ext/1360937237/actuator.o
 .debug_loc     0x00000000000077b6      0x799 build/default/debug/_ext/504274921/plib_sercom5_usart.o
 .debug_loc     0x0000000000007f4f       0x14 c:/program files/microchip/xc32/v4.60/bin/bin/../../lib/gcc/pic32c/8.3.1/../../../../pic32c/lib/thumb/v7e-m+fp/hard\libpic32c.a(data_init.o)
 .debug_loc     0x0000000000007f63      0x10b c:/program files/microchip/xc32/v4.60/bin/bin/../../lib/gcc/pic32c/8.3.1/../../../../pic32c/lib/thumb/v7e-m+fp/hard\libc-size-musl.a(memcpy.o)
 .debug_loc     0x000000000000806e       0x7d c:/program files/microchip/xc32/v4.60/bin/bin/../../lib/gcc/pic32c/8.3.1/../../../../pic32c/lib/thumb/v7e-m+fp/hard\libc-size-musl.a(memset.o)
 .debug_loc     0x00000000000080eb       0x51 c:/program files/microchip/xc32/v4.60/bin/bin/../../lib/gcc/pic32c/8.3.1/../../../../pic32c/lib/thumb/v7e-m+fp/hard\libg-musl.a(__libc_start_main.o)
 .debug_loc     0x000000000000813c       0x91 c:/program files/microchip/xc32/v4.60/bin/bin/../../lib/gcc/pic32c/8.3.1/../../../../pic32c/lib/thumb/v7e-m+fp/hard\libg-musl.a(__sio_printf_nu.o)
 .debug_loc     0x00000000000081cd      0x10a c:/program files/microchip/xc32/v4.60/bin/bin/../../lib/gcc/pic32c/8.3.1/../../../../pic32c/lib/thumb/v7e-m+fp/hard\libg-musl.a(__fmt_u.o)
 .debug_loc     0x00000000000082d7      0x2f5 c:/program files/microchip/xc32/v4.60/bin/bin/../../lib/gcc/pic32c/8.3.1/../../../../pic32c/lib/thumb/v7e-m+fp/hard\libg-musl.a(__pop_int.o)
 .debug_loc     0x00000000000085cc      0x1db c:/program files/microchip/xc32/v4.60/bin/bin/../../lib/gcc/pic32c/8.3.1/../../../../pic32c/lib/thumb/v7e-m+fp/hard\libg-musl.a(__pop_ptr.o)
 .debug_loc     0x00000000000087a7      0x5e9 c:/program files/microchip/xc32/v4.60/bin/bin/../../lib/gcc/pic32c/8.3.1/../../../../pic32c/lib/thumb/v7e-m+fp/hard\libg-musl.a(__printf_core.o)
 .debug_loc     0x0000000000008d90       0x25 c:/program files/microchip/xc32/v4.60/bin/bin/../../lib/gcc/pic32c/8.3.1/../../../../pic32c/lib/thumb/v7e-m+fp/hard\libg-musl.a(stdin.o)
 .debug_loc     0x0000000000008db5       0x20 c:/program files/microchip/xc32/v4.60/bin/bin/../../lib/gcc/pic32c/8.3.1/../../../../pic32c/lib/thumb/v7e-m+fp/hard\libg-musl.a(stdout.o)
 .debug_loc     0x0000000000008dd5       0x6a c:/program files/microchip/xc32/v4.60/bin/bin/../../lib/gcc/pic32c/8.3.1/../../../../pic32c/lib/thumb/v7e-m+fp/hard\libg-musl.a(puts.o)
 .debug_loc     0x0000000000008e3f       0x4a c:/program files/microchip/xc32/v4.60/bin/bin/../../lib/gcc/pic32c/8.3.1/../../../../pic32c/lib/thumb/v7e-m+fp/hard\libg-musl.a(setbuf.o)
 .debug_loc     0x0000000000008e89       0xd8 c:/program files/microchip/xc32/v4.60/bin/bin/../../lib/gcc/pic32c/8.3.1/../../../../pic32c/lib/thumb/v7e-m+fp/hard\libg-musl.a(atoi.o)
 .debug_loc     0x0000000000008f61       0x4a c:/program files/microchip/xc32/v4.60/bin/bin/../../lib/gcc/pic32c/8.3.1/../../../../pic32c/lib/thumb/v7e-m+fp/hard\libg-musl.a(tolower.o)
 .debug_loc     0x0000000000008fab       0x88 c:/program files/microchip/xc32/v4.60/bin/bin/../../lib/gcc/pic32c/8.3.1/../../../../pic32c/lib/thumb/v7e-m+fp/hard\libg-musl.a(__int_vfprintf.o)
 .debug_loc     0x0000000000009033       0x93 c:/program files/microchip/xc32/v4.60/bin/bin/../../lib/gcc/pic32c/8.3.1/../../../../pic32c/lib/thumb/v7e-m+fp/hard\libg-musl.a(fputs.o)
 .debug_loc     0x00000000000090c6      0x197 c:/program files/microchip/xc32/v4.60/bin/bin/../../lib/gcc/pic32c/8.3.1/../../../../pic32c/lib/thumb/v7e-m+fp/hard\libg-musl.a(__cvt_u.o)
 .debug_loc     0x000000000000925d       0xa6 c:/program files/microchip/xc32/v4.60/bin/bin/../../lib/gcc/pic32c/8.3.1/../../../../pic32c/lib/thumb/v7e-m+fp/hard\libg-musl.a(__pop_float.o)
 .debug_loc     0x0000000000009303      0x103 c:/program files/microchip/xc32/v4.60/bin/bin/../../lib/gcc/pic32c/8.3.1/../../../../pic32c/lib/thumb/v7e-m+fp/hard\libg-musl.a(__stdio_read.o)
 .debug_loc     0x0000000000009406       0x25 c:/program files/microchip/xc32/v4.60/bin/bin/../../lib/gcc/pic32c/8.3.1/../../../../pic32c/lib/thumb/v7e-m+fp/hard\libg-musl.a(__towrite_rw.o)
 .debug_loc     0x000000000000942b      0x17e c:/program files/microchip/xc32/v4.60/bin/bin/../../lib/gcc/pic32c/8.3.1/../../../../pic32c/lib/thumb/v7e-m+fp/hard\libg-musl.a(fwrite.o)
 .debug_loc     0x00000000000095a9      0x123 c:/program files/microchip/xc32/v4.60/bin/bin/../../lib/gcc/pic32c/8.3.1/../../../../pic32c/lib/thumb/v7e-m+fp/hard\libg-musl.a(putc.o)
 .debug_loc     0x00000000000096cc       0xd8 c:/program files/microchip/xc32/v4.60/bin/bin/../../lib/gcc/pic32c/8.3.1/../../../../pic32c/lib/thumb/v7e-m+fp/hard\libg-musl.a(setvbuf.o)
 .debug_loc     0x00000000000097a4       0xeb c:/program files/microchip/xc32/v4.60/bin/bin/../../lib/gcc/pic32c/8.3.1/../../../../pic32c/lib/thumb/v7e-m+fp/hard\libg-musl.a(readv.o)
 .debug_loc     0x000000000000988f       0x20 c:/program files/microchip/xc32/v4.60/bin/bin/../../lib/gcc/pic32c/8.3.1/../../../../pic32c/lib/thumb/v7e-m+fp/hard\libg-musl.a(__init_stdio.o)
 .debug_loc     0x00000000000098af      0x1a8 c:/program files/microchip/xc32/v4.60/bin/bin/../../lib/gcc/pic32c/8.3.1/../../../../pic32c/lib/thumb/v7e-m+fp/hard\libg-musl.a(__out.o)
 .debug_loc     0x0000000000009a57      0x114 c:/program files/microchip/xc32/v4.60/bin/bin/../../lib/gcc/pic32c/8.3.1/../../../../pic32c/lib/thumb/v7e-m+fp/hard\libg-musl.a(__putc.o)
 .debug_loc     0x0000000000009b6b       0x25 c:/program files/microchip/xc32/v4.60/bin/bin/../../lib/gcc/pic32c/8.3.1/../../../../pic32c/lib/thumb/v7e-m+fp/hard\libg-musl.a(__stderr.o)
 .debug_loc     0x0000000000009b90      0x208 c:/program files/microchip/xc32/v4.60/bin/bin/../../lib/gcc/pic32c/8.3.1/../../../../pic32c/lib/thumb/v7e-m+fp/hard\libg-musl.a(__stdio_close.o)
 .debug_loc     0x0000000000009d98      0x2f1 c:/program files/microchip/xc32/v4.60/bin/bin/../../lib/gcc/pic32c/8.3.1/../../../../pic32c/lib/thumb/v7e-m+fp/hard\libg-musl.a(__stdio_write.o)
 .debug_loc     0x000000000000a089       0x25 c:/program files/microchip/xc32/v4.60/bin/bin/../../lib/gcc/pic32c/8.3.1/../../../../pic32c/lib/thumb/v7e-m+fp/hard\libg-musl.a(__stdout.o)
 .debug_loc     0x000000000000a0ae       0x7c c:/program files/microchip/xc32/v4.60/bin/bin/../../lib/gcc/pic32c/8.3.1/../../../../pic32c/lib/thumb/v7e-m+fp/hard\libg-musl.a(__towrite.o)
 .debug_loc     0x000000000000a12a       0xeb c:/program files/microchip/xc32/v4.60/bin/bin/../../lib/gcc/pic32c/8.3.1/../../../../pic32c/lib/thumb/v7e-m+fp/hard\libg-musl.a(writev.o)
 .debug_loc     0x000000000000a215       0xb6 c:/program files/microchip/xc32/v4.60/bin/bin/../../lib/gcc/pic32c/8.3.1/../../../../pic32c/lib/thumb/v7e-m+fp/hard\libg-musl.a(__overflow.o)
 .debug_loc     0x000000000000a2cb      0x10a c:/program files/microchip/xc32/v4.60/bin/bin/../../lib/gcc/pic32c/8.3.1/../../../../pic32c/lib/thumb/v7e-m+fp/hard\libg-musl.a(__fwrite.o)
 .debug_loc     0x000000000000a3d5      0xe69 c:/program files/microchip/xc32/v4.60/bin/bin/../../lib/gcc/pic32c/8.3.1/thumb/v7e-m+fp/hard\libgcc.a(_udivmoddi4.o)
 .debug_loc     0x000000000000b23e       0x90 c:/program files/microchip/xc32/v4.60/bin/bin/../../lib/gcc/pic32c/8.3.1/../../../../pic32c/lib/thumb/v7e-m+fp/hard\libc-size-musl.a(strlen.o)
 .debug_loc     0x000000000000b2ce       0xf3 c:/program files/microchip/xc32/v4.60/bin/bin/../../lib/gcc/pic32c/8.3.1/../../../../pic32c/lib/thumb/v7e-m+fp/hard\liblmalloc-musl.a(lite_malloc.o)
 .debug_loc     0x000000000000b3c1      0x2ed c:/program files/microchip/xc32/v4.60/bin/bin/../../lib/gcc/pic32c/8.3.1/../../../../pic32c/lib/thumb/v7e-m+fp/hard\liblmalloc-musl.a(lite_free.o)
 .debug_loc     0x000000000000b6ae       0x7c c:/program files/microchip/xc32/v4.60/bin/bin/../../lib/gcc/pic32c/8.3.1/../../../../pic32c/lib/thumb/v7e-m+fp/hard\libg-musl.a(expand_heap.o)
 .debug_loc     0x000000000000b72a       0x28 c:/program files/microchip/xc32/v4.60/bin/bin/../../lib/gcc/pic32c/8.3.1/../../../../pic32c/lib/thumb/v7e-m+fp/hard\libpic32c.a(sbrk.o)
 .debug_loc     0x000000000000b752       0x14 c:/program files/microchip/xc32/v4.60/bin/bin/../../lib/gcc/pic32c/8.3.1/../../../../pic32c/lib/thumb/v7e-m+fp/hard\libpic32c.a(pic32_data_init_copy.o)

.note.GNU-stack
                0x0000000000000000        0x0
 .note.GNU-stack
                0x0000000000000000        0x0 c:/program files/microchip/xc32/v4.60/bin/bin/../../lib/gcc/pic32c/8.3.1/../../../../pic32c/lib/thumb/v7e-m+fp/hard\libc-size-musl.a(memcpy.o)
 .note.GNU-stack
                0x0000000000000000        0x0 c:/program files/microchip/xc32/v4.60/bin/bin/../../lib/gcc/pic32c/8.3.1/../../../../pic32c/lib/thumb/v7e-m+fp/hard\libc-size-musl.a(memset.o)
 .note.GNU-stack
                0x0000000000000000        0x0 c:/program files/microchip/xc32/v4.60/bin/bin/../../lib/gcc/pic32c/8.3.1/../../../../pic32c/lib/thumb/v7e-m+fp/hard\libg-musl.a(__libc_start_main.o)
 .note.GNU-stack
                0x0000000000000000        0x0 c:/program files/microchip/xc32/v4.60/bin/bin/../../lib/gcc/pic32c/8.3.1/../../../../pic32c/lib/thumb/v7e-m+fp/hard\libg-musl.a(libc.o)
 .note.GNU-stack
                0x0000000000000000        0x0 c:/program files/microchip/xc32/v4.60/bin/bin/../../lib/gcc/pic32c/8.3.1/../../../../pic32c/lib/thumb/v7e-m+fp/hard\libg-musl.a(__sio_printf_nu.o)
 .note.GNU-stack
                0x0000000000000000        0x0 c:/program files/microchip/xc32/v4.60/bin/bin/../../lib/gcc/pic32c/8.3.1/../../../../pic32c/lib/thumb/v7e-m+fp/hard\libg-musl.a(__fmt_u.o)
 .note.GNU-stack
                0x0000000000000000        0x0 c:/program files/microchip/xc32/v4.60/bin/bin/../../lib/gcc/pic32c/8.3.1/../../../../pic32c/lib/thumb/v7e-m+fp/hard\libg-musl.a(__pop_int.o)
 .note.GNU-stack
                0x0000000000000000        0x0 c:/program files/microchip/xc32/v4.60/bin/bin/../../lib/gcc/pic32c/8.3.1/../../../../pic32c/lib/thumb/v7e-m+fp/hard\libg-musl.a(__pop_ptr.o)
 .note.GNU-stack
                0x0000000000000000        0x0 c:/program files/microchip/xc32/v4.60/bin/bin/../../lib/gcc/pic32c/8.3.1/../../../../pic32c/lib/thumb/v7e-m+fp/hard\libg-musl.a(__printf_core.o)
 .note.GNU-stack
                0x0000000000000000        0x0 c:/program files/microchip/xc32/v4.60/bin/bin/../../lib/gcc/pic32c/8.3.1/../../../../pic32c/lib/thumb/v7e-m+fp/hard\libg-musl.a(stdin.o)
 .note.GNU-stack
                0x0000000000000000        0x0 c:/program files/microchip/xc32/v4.60/bin/bin/../../lib/gcc/pic32c/8.3.1/../../../../pic32c/lib/thumb/v7e-m+fp/hard\libg-musl.a(stdout.o)
 .note.GNU-stack
                0x0000000000000000        0x0 c:/program files/microchip/xc32/v4.60/bin/bin/../../lib/gcc/pic32c/8.3.1/../../../../pic32c/lib/thumb/v7e-m+fp/hard\libg-musl.a(puts.o)
 .note.GNU-stack
                0x0000000000000000        0x0 c:/program files/microchip/xc32/v4.60/bin/bin/../../lib/gcc/pic32c/8.3.1/../../../../pic32c/lib/thumb/v7e-m+fp/hard\libg-musl.a(setbuf.o)
 .note.GNU-stack
                0x0000000000000000        0x0 c:/program files/microchip/xc32/v4.60/bin/bin/../../lib/gcc/pic32c/8.3.1/../../../../pic32c/lib/thumb/v7e-m+fp/hard\libg-musl.a(atoi.o)
 .note.GNU-stack
                0x0000000000000000        0x0 c:/program files/microchip/xc32/v4.60/bin/bin/../../lib/gcc/pic32c/8.3.1/../../../../pic32c/lib/thumb/v7e-m+fp/hard\libg-musl.a(tolower.o)
 .note.GNU-stack
                0x0000000000000000        0x0 c:/program files/microchip/xc32/v4.60/bin/bin/../../lib/gcc/pic32c/8.3.1/../../../../pic32c/lib/thumb/v7e-m+fp/hard\libg-musl.a(__environ.o)
 .note.GNU-stack
                0x0000000000000000        0x0 c:/program files/microchip/xc32/v4.60/bin/bin/../../lib/gcc/pic32c/8.3.1/../../../../pic32c/lib/thumb/v7e-m+fp/hard\libg-musl.a(__errno_location.o)
 .note.GNU-stack
                0x0000000000000000        0x0 c:/program files/microchip/xc32/v4.60/bin/bin/../../lib/gcc/pic32c/8.3.1/../../../../pic32c/lib/thumb/v7e-m+fp/hard\libg-musl.a(__int_vfprintf.o)
 .note.GNU-stack
                0x0000000000000000        0x0 c:/program files/microchip/xc32/v4.60/bin/bin/../../lib/gcc/pic32c/8.3.1/../../../../pic32c/lib/thumb/v7e-m+fp/hard\libg-musl.a(fputs.o)
 .note.GNU-stack
                0x0000000000000000        0x0 c:/program files/microchip/xc32/v4.60/bin/bin/../../lib/gcc/pic32c/8.3.1/../../../../pic32c/lib/thumb/v7e-m+fp/hard\libg-musl.a(__cvt_u.o)
 .note.GNU-stack
                0x0000000000000000        0x0 c:/program files/microchip/xc32/v4.60/bin/bin/../../lib/gcc/pic32c/8.3.1/../../../../pic32c/lib/thumb/v7e-m+fp/hard\libg-musl.a(__pop_float.o)
 .note.GNU-stack
                0x0000000000000000        0x0 c:/program files/microchip/xc32/v4.60/bin/bin/../../lib/gcc/pic32c/8.3.1/../../../../pic32c/lib/thumb/v7e-m+fp/hard\libg-musl.a(__stdio_read.o)
 .note.GNU-stack
                0x0000000000000000        0x0 c:/program files/microchip/xc32/v4.60/bin/bin/../../lib/gcc/pic32c/8.3.1/../../../../pic32c/lib/thumb/v7e-m+fp/hard\libg-musl.a(__towrite_rw.o)
 .note.GNU-stack
                0x0000000000000000        0x0 c:/program files/microchip/xc32/v4.60/bin/bin/../../lib/gcc/pic32c/8.3.1/../../../../pic32c/lib/thumb/v7e-m+fp/hard\libg-musl.a(fwrite.o)
 .note.GNU-stack
                0x0000000000000000        0x0 c:/program files/microchip/xc32/v4.60/bin/bin/../../lib/gcc/pic32c/8.3.1/../../../../pic32c/lib/thumb/v7e-m+fp/hard\libg-musl.a(putc.o)
 .note.GNU-stack
                0x0000000000000000        0x0 c:/program files/microchip/xc32/v4.60/bin/bin/../../lib/gcc/pic32c/8.3.1/../../../../pic32c/lib/thumb/v7e-m+fp/hard\libg-musl.a(setvbuf.o)
 .note.GNU-stack
                0x0000000000000000        0x0 c:/program files/microchip/xc32/v4.60/bin/bin/../../lib/gcc/pic32c/8.3.1/../../../../pic32c/lib/thumb/v7e-m+fp/hard\libg-musl.a(readv.o)
 .note.GNU-stack
                0x0000000000000000        0x0 c:/program files/microchip/xc32/v4.60/bin/bin/../../lib/gcc/pic32c/8.3.1/../../../../pic32c/lib/thumb/v7e-m+fp/hard\libg-musl.a(__init_stdio.o)
 .note.GNU-stack
                0x0000000000000000        0x0 c:/program files/microchip/xc32/v4.60/bin/bin/../../lib/gcc/pic32c/8.3.1/../../../../pic32c/lib/thumb/v7e-m+fp/hard\libg-musl.a(__out.o)
 .note.GNU-stack
                0x0000000000000000        0x0 c:/program files/microchip/xc32/v4.60/bin/bin/../../lib/gcc/pic32c/8.3.1/../../../../pic32c/lib/thumb/v7e-m+fp/hard\libg-musl.a(__putc.o)
 .note.GNU-stack
                0x0000000000000000        0x0 c:/program files/microchip/xc32/v4.60/bin/bin/../../lib/gcc/pic32c/8.3.1/../../../../pic32c/lib/thumb/v7e-m+fp/hard\libg-musl.a(__stderr.o)
 .note.GNU-stack
                0x0000000000000000        0x0 c:/program files/microchip/xc32/v4.60/bin/bin/../../lib/gcc/pic32c/8.3.1/../../../../pic32c/lib/thumb/v7e-m+fp/hard\libg-musl.a(__stdio_close.o)
 .note.GNU-stack
                0x0000000000000000        0x0 c:/program files/microchip/xc32/v4.60/bin/bin/../../lib/gcc/pic32c/8.3.1/../../../../pic32c/lib/thumb/v7e-m+fp/hard\libg-musl.a(__stdio_write.o)
 .note.GNU-stack
                0x0000000000000000        0x0 c:/program files/microchip/xc32/v4.60/bin/bin/../../lib/gcc/pic32c/8.3.1/../../../../pic32c/lib/thumb/v7e-m+fp/hard\libg-musl.a(__stdout.o)
 .note.GNU-stack
                0x0000000000000000        0x0 c:/program files/microchip/xc32/v4.60/bin/bin/../../lib/gcc/pic32c/8.3.1/../../../../pic32c/lib/thumb/v7e-m+fp/hard\libg-musl.a(__towrite.o)
 .note.GNU-stack
                0x0000000000000000        0x0 c:/program files/microchip/xc32/v4.60/bin/bin/../../lib/gcc/pic32c/8.3.1/../../../../pic32c/lib/thumb/v7e-m+fp/hard\libg-musl.a(writev.o)
 .note.GNU-stack
                0x0000000000000000        0x0 c:/program files/microchip/xc32/v4.60/bin/bin/../../lib/gcc/pic32c/8.3.1/../../../../pic32c/lib/thumb/v7e-m+fp/hard\libg-musl.a(__overflow.o)
 .note.GNU-stack
                0x0000000000000000        0x0 c:/program files/microchip/xc32/v4.60/bin/bin/../../lib/gcc/pic32c/8.3.1/../../../../pic32c/lib/thumb/v7e-m+fp/hard\libg-musl.a(__fwrite.o)
 .note.GNU-stack
                0x0000000000000000        0x0 c:/program files/microchip/xc32/v4.60/bin/bin/../../lib/gcc/pic32c/8.3.1/../../../../pic32c/lib/thumb/v7e-m+fp/hard\libc-size-musl.a(strlen.o)
 .note.GNU-stack
                0x0000000000000000        0x0 c:/program files/microchip/xc32/v4.60/bin/bin/../../lib/gcc/pic32c/8.3.1/../../../../pic32c/lib/thumb/v7e-m+fp/hard\liblmalloc-musl.a(lite_malloc.o)
 .note.GNU-stack
                0x0000000000000000        0x0 c:/program files/microchip/xc32/v4.60/bin/bin/../../lib/gcc/pic32c/8.3.1/../../../../pic32c/lib/thumb/v7e-m+fp/hard\liblmalloc-musl.a(lite_free.o)
 .note.GNU-stack
                0x0000000000000000        0x0 c:/program files/microchip/xc32/v4.60/bin/bin/../../lib/gcc/pic32c/8.3.1/../../../../pic32c/lib/thumb/v7e-m+fp/hard\libg-musl.a(expand_heap.o)

__xc_reference_data
                0x0000000000000000       0xc0
 __xc_reference_data
                0x0000000000000000        0x4 c:/program files/microchip/xc32/v4.60/bin/bin/../../lib/gcc/pic32c/8.3.1/../../../../pic32c/lib/thumb/v7e-m+fp/hard\libg-musl.a(stdin.o)
                0x0000000000000000                __stdin_needs_rw
 __xc_reference_data
                0x0000000000000004        0x4 c:/program files/microchip/xc32/v4.60/bin/bin/../../lib/gcc/pic32c/8.3.1/../../../../pic32c/lib/thumb/v7e-m+fp/hard\libg-musl.a(stdout.o)
                0x0000000000000004                __stdout_needs_init
 __xc_reference_data
                0x0000000000000008        0xc c:/program files/microchip/xc32/v4.60/bin/bin/../../lib/gcc/pic32c/8.3.1/../../../../pic32c/lib/thumb/v7e-m+fp/hard\libg-musl.a(__io_init_needed.o)
                0x0000000000000008                __io_init_needed
                0x0000000000000010                __io_init_needs_file
 __xc_reference_data
                0x0000000000000014       0x24 c:/program files/microchip/xc32/v4.60/bin/bin/../../lib/gcc/pic32c/8.3.1/../../../../pic32c/lib/thumb/v7e-m+fp/hard\libg-musl.a(__io_rw_needed.o)
                0x0000000000000014                __io_rw_needed
 __xc_reference_data
                0x0000000000000038        0x8 c:/program files/microchip/xc32/v4.60/bin/bin/../../lib/gcc/pic32c/8.3.1/../../../../pic32c/lib/thumb/v7e-m+fp/hard\libg-musl.a(putc.o)
                0x0000000000000038                __putc_needs_out
 __xc_reference_data
                0x0000000000000040        0x4 c:/program files/microchip/xc32/v4.60/bin/bin/../../lib/gcc/pic32c/8.3.1/../../../../pic32c/lib/thumb/v7e-m+fp/hard\libg-musl.a(setvbuf.o)
                0x0000000000000040                __setvbuf_needs_buf
 __xc_reference_data
                0x0000000000000044       0x38 c:/program files/microchip/xc32/v4.60/bin/bin/../../lib/gcc/pic32c/8.3.1/../../../../pic32c/lib/thumb/v7e-m+fp/hard\libg-musl.a(__io_buf_needed.o)
                0x0000000000000044                __io_buf_needed
 __xc_reference_data
                0x000000000000007c        0x8 c:/program files/microchip/xc32/v4.60/bin/bin/../../lib/gcc/pic32c/8.3.1/../../../../pic32c/lib/thumb/v7e-m+fp/hard\libg-musl.a(__io_file_needed.o)
                0x000000000000007c                __io_file_needed
 __xc_reference_data
                0x0000000000000084       0x30 c:/program files/microchip/xc32/v4.60/bin/bin/../../lib/gcc/pic32c/8.3.1/../../../../pic32c/lib/thumb/v7e-m+fp/hard\libg-musl.a(__io_std_needed.o)
                0x0000000000000084                __io_std_needed
 __xc_reference_data
                0x00000000000000b4        0x4 c:/program files/microchip/xc32/v4.60/bin/bin/../../lib/gcc/pic32c/8.3.1/../../../../pic32c/lib/thumb/v7e-m+fp/hard\libg-musl.a(__stderr.o)
                0x00000000000000b4                __stderr_needs_file
 __xc_reference_data
                0x00000000000000b8        0x4 c:/program files/microchip/xc32/v4.60/bin/bin/../../lib/gcc/pic32c/8.3.1/../../../../pic32c/lib/thumb/v7e-m+fp/hard\libg-musl.a(__stdout.o)
                0x00000000000000b8                __stdout_needs_file
 __xc_reference_data
                0x00000000000000bc        0x4 c:/program files/microchip/xc32/v4.60/bin/bin/../../lib/gcc/pic32c/8.3.1/../../../../pic32c/lib/thumb/v7e-m+fp/hard\libg-musl.a(__fwrite.o)
                0x00000000000000bc                __fwrite_needs_std

.stack          0x000000002000ae40      0x100
 .stack         0x000000002000ae40      0x100 stack

.bss.ucHeap%1   0x0000000020000000     0xa000
 .bss.ucHeap    0x0000000020000000     0xa000 build/default/debug/_ext/1665200909/heap_1.o

.bss.neo_buf%2  0x000000002000a000      0x542
 .bss.neo_buf   0x000000002000a000      0x542 build/default/debug/_ext/1360937237/neopixel.o

.bss%3          0x000000002000a542      0x408
 .bss           0x000000002000a542      0x408 c:/program files/microchip/xc32/v4.60/bin/bin/../../lib/gcc/pic32c/8.3.1/../../../../pic32c/lib/thumb/v7e-m+fp/hard\libg-musl.a(stdin.o)

.bss.pxReadyTasksLists%4
                0x000000002000a94c       0x64
 .bss.pxReadyTasksLists
                0x000000002000a94c       0x64 build/default/debug/_ext/404212886/FreeRTOS_tasks.o

.bss%5          0x000000002000a9b0       0x50
 .bss           0x000000002000a9b0       0x50 c:/program files/microchip/xc32/v4.60/bin/bin/../../lib/gcc/pic32c/8.3.1/../../../../pic32c/lib/thumb/v7e-m+fp/hard\libg-musl.a(libc.o)
                0x000000002000a9b0                __progname_full
                0x000000002000a9b0                program_invocation_name
                0x000000002000a9b4                program_invocation_short_name
                0x000000002000a9b4                __progname
                0x000000002000a9b8                __sysinfo
                0x000000002000a9bc                __hwcap
                0x000000002000a9c0                __libc

.bss%6          0x000000002000aa00       0x1c
 .bss           0x000000002000aa00       0x1c c:/program files/microchip/xc32/v4.60/bin/bin/../../lib/gcc/pic32c/8.3.1/thumb/v7e-m+fp/hard/crtbegin.o

.bss.xDelayedTaskList1%7
                0x000000002000aa1c       0x14
 .bss.xDelayedTaskList1
                0x000000002000aa1c       0x14 build/default/debug/_ext/404212886/FreeRTOS_tasks.o

.bss.xDelayedTaskList2%8
                0x000000002000aa30       0x14
 .bss.xDelayedTaskList2
                0x000000002000aa30       0x14 build/default/debug/_ext/404212886/FreeRTOS_tasks.o

.bss.xPendingReadyList%9
                0x000000002000aa44       0x14
 .bss.xPendingReadyList
                0x000000002000aa44       0x14 build/default/debug/_ext/404212886/FreeRTOS_tasks.o

.bss.xSuspendedTaskList%10
                0x000000002000aa58       0x14
 .bss.xSuspendedTaskList
                0x000000002000aa58       0x14 build/default/debug/_ext/404212886/FreeRTOS_tasks.o

.bss.xTasksWaitingTermination%11
                0x000000002000aa6c       0x14
 .bss.xTasksWaitingTermination
                0x000000002000aa6c       0x14 build/default/debug/_ext/404212886/FreeRTOS_tasks.o

.bss.descriptor_section%12
                0x000000002000aa80       0x10
 .bss.descriptor_section
                0x000000002000aa80       0x10 build/default/debug/_ext/1865161661/plib_dmac.o

.bss.dmacChannelObj%13
                0x000000002000aa90       0x10
 .bss.dmacChannelObj
                0x000000002000aa90       0x10 build/default/debug/_ext/1865161661/plib_dmac.o

.bss.write_back_section%14
                0x000000002000aaa0       0x10
 .bss.write_back_section
                0x000000002000aaa0       0x10 build/default/debug/_ext/1865161661/plib_dmac.o

.bss.systick%15
                0x000000002000aab0        0xc
 .bss.systick   0x000000002000aab0        0xc build/default/debug/_ext/1827571544/plib_systick.o

.bss%16         0x000000002000aabc        0xc
 .bss           0x000000002000aabc        0xc c:/program files/microchip/xc32/v4.60/bin/bin/../../lib/gcc/pic32c/8.3.1/../../../../pic32c/lib/thumb/v7e-m+fp/hard\libpic32c.a(sbrk.o)
                0x000000002000aac0                _maxbrk
                0x000000002000aac4                _minbrk

.bss%17         0x000000002000aac8        0x8
 .bss           0x000000002000aac8        0x8 c:/program files/microchip/xc32/v4.60/bin/bin/../../lib/gcc/pic32c/8.3.1/../../../../pic32c/lib/thumb/v7e-m+fp/hard\libg-musl.a(stdout.o)
                0x000000002000aacc                __stdout_used

.bss.pucAlignedHeap.6135%18
                0x000000002000aad0        0x4
 .bss.pucAlignedHeap.6135
                0x000000002000aad0        0x4 build/default/debug/_ext/1665200909/heap_1.o

.bss.xNextFreeByte%19
                0x000000002000aad4        0x4
 .bss.xNextFreeByte
                0x000000002000aad4        0x4 build/default/debug/_ext/1665200909/heap_1.o

.bss.pxCurrentTCB%20
                0x000000002000aad8        0x4
 .bss.pxCurrentTCB
                0x000000002000aad8        0x4 build/default/debug/_ext/404212886/FreeRTOS_tasks.o
                0x000000002000aad8                pxCurrentTCB

.bss.pxDelayedTaskList%21
                0x000000002000aadc        0x4
 .bss.pxDelayedTaskList
                0x000000002000aadc        0x4 build/default/debug/_ext/404212886/FreeRTOS_tasks.o

.bss.pxOverflowDelayedTaskList%22
                0x000000002000aae0        0x4
 .bss.pxOverflowDelayedTaskList
                0x000000002000aae0        0x4 build/default/debug/_ext/404212886/FreeRTOS_tasks.o

.bss.uxCurrentNumberOfTasks%23
                0x000000002000aae4        0x4
 .bss.uxCurrentNumberOfTasks
                0x000000002000aae4        0x4 build/default/debug/_ext/404212886/FreeRTOS_tasks.o

.bss.uxDeletedTasksWaitingCleanUp%24
                0x000000002000aae8        0x4
 .bss.uxDeletedTasksWaitingCleanUp
                0x000000002000aae8        0x4 build/default/debug/_ext/404212886/FreeRTOS_tasks.o

.bss.uxSchedulerSuspended%25
                0x000000002000aaec        0x4
 .bss.uxSchedulerSuspended
                0x000000002000aaec        0x4 build/default/debug/_ext/404212886/FreeRTOS_tasks.o

.bss.uxTaskNumber%26
                0x000000002000aaf0        0x4
 .bss.uxTaskNumber
                0x000000002000aaf0        0x4 build/default/debug/_ext/404212886/FreeRTOS_tasks.o

.bss.uxTopReadyPriority%27
                0x000000002000aaf4        0x4
 .bss.uxTopReadyPriority
                0x000000002000aaf4        0x4 build/default/debug/_ext/404212886/FreeRTOS_tasks.o

.bss.xIdleTaskHandles%28
                0x000000002000aaf8        0x4
 .bss.xIdleTaskHandles
                0x000000002000aaf8        0x4 build/default/debug/_ext/404212886/FreeRTOS_tasks.o

.bss.xNextTaskUnblockTime%29
                0x000000002000aafc        0x4
 .bss.xNextTaskUnblockTime
                0x000000002000aafc        0x4 build/default/debug/_ext/404212886/FreeRTOS_tasks.o

.bss.xNumOfOverflows%30
                0x000000002000ab00        0x4
 .bss.xNumOfOverflows
                0x000000002000ab00        0x4 build/default/debug/_ext/404212886/FreeRTOS_tasks.o

.bss.xPendedTicks%31
                0x000000002000ab04        0x4
 .bss.xPendedTicks
                0x000000002000ab04        0x4 build/default/debug/_ext/404212886/FreeRTOS_tasks.o

.bss.xSchedulerRunning%32
                0x000000002000ab08        0x4
 .bss.xSchedulerRunning
                0x000000002000ab08        0x4 build/default/debug/_ext/404212886/FreeRTOS_tasks.o

.bss.xTickCount%33
                0x000000002000ab0c        0x4
 .bss.xTickCount
                0x000000002000ab0c        0x4 build/default/debug/_ext/404212886/FreeRTOS_tasks.o

.bss.xYieldPendings%34
                0x000000002000ab10        0x4
 .bss.xYieldPendings
                0x000000002000ab10        0x4 build/default/debug/_ext/404212886/FreeRTOS_tasks.o

.bss%35         0x000000002000ab14        0x4
 .bss           0x000000002000ab14        0x4 c:/program files/microchip/xc32/v4.60/bin/bin/../../lib/gcc/pic32c/8.3.1/../../../../pic32c/lib/thumb/v7e-m+fp/hard\libpic32c.a(data_init.o)

.bss%36         0x000000002000ab18        0x4
 .bss           0x000000002000ab18        0x4 c:/program files/microchip/xc32/v4.60/bin/bin/../../lib/gcc/pic32c/8.3.1/../../../../pic32c/lib/thumb/v7e-m+fp/hard\libg-musl.a(__environ.o)
                0x000000002000ab18                __environ
                0x000000002000ab18                environ
                0x000000002000ab18                ___environ
                0x000000002000ab18                _environ

.bss%37         0x000000002000ab1c        0x4
 .bss           0x000000002000ab1c        0x4 c:/program files/microchip/xc32/v4.60/bin/bin/../../lib/gcc/pic32c/8.3.1/../../../../pic32c/lib/thumb/v7e-m+fp/hard\libg-musl.a(__errno_location.o)
                0x000000002000ab1c                __errno_val

.bss%38         0x000000002000ab20        0x4
 .bss           0x000000002000ab20        0x4 c:/program files/microchip/xc32/v4.60/bin/bin/../../lib/gcc/pic32c/8.3.1/../../../../pic32c/lib/thumb/v7e-m+fp/hard\liblmalloc-musl.a(lite_free.o)
                0x000000002000ab20                __freelist

.bss.tx_done%39
                0x000000002000a94a        0x1
 .bss.tx_done   0x000000002000a94a        0x1 build/default/debug/_ext/1360937237/neopixel.o

.bss.is_down%40
                0x000000002000a94b        0x1
 .bss.is_down   0x000000002000a94b        0x1 build/default/debug/_ext/1360937237/actuator.o

.bss.is_up%41   0x000000002000ab24        0x1
 .bss.is_up     0x000000002000ab24        0x1 build/default/debug/_ext/1360937237/actuator.o

.data%42        0x000000002000ab28       0x6c
 .data          0x000000002000ab28       0x6c c:/program files/microchip/xc32/v4.60/bin/bin/../../lib/gcc/pic32c/8.3.1/../../../../pic32c/lib/thumb/v7e-m+fp/hard\libg-musl.a(stdin.o)
                0x000000002000ab28                __stdin_used
                0x000000002000ab2c                _stdin

.data%43        0x000000002000ab94       0x60
 .data          0x000000002000ab94       0x60 c:/program files/microchip/xc32/v4.60/bin/bin/../../lib/gcc/pic32c/8.3.1/../../../../pic32c/lib/thumb/v7e-m+fp/hard\libg-musl.a(__stdout.o)

.data%44        0x000000002000abf4       0x20
 .data          0x000000002000abf4       0x20 c:/program files/microchip/xc32/v4.60/bin/bin/../../lib/gcc/pic32c/8.3.1/../../../../pic32c/lib/thumb/v7e-m+fp/hard\libg-musl.a(stdout.o)
                0x000000002000ac10                _stdout

.data.uxCriticalNesting%45
                0x000000002000ac14        0x4
 .data.uxCriticalNesting
                0x000000002000ac14        0x4 build/default/debug/_ext/246609638/port.o

.data.uxTopUsedPriority%46
                0x000000002000ac18        0x4
 .data.uxTopUsedPriority
                0x000000002000ac18        0x4 build/default/debug/_ext/404212886/FreeRTOS_tasks.o

.data%47        0x000000002000ac1c        0x4
 .data          0x000000002000ac1c        0x4 c:/program files/microchip/xc32/v4.60/bin/bin/../../lib/gcc/pic32c/8.3.1/../../../../pic32c/lib/thumb/v7e-m+fp/hard\liblmalloc-musl.a(lite_malloc.o)

.eh_frame%z1    0x0000000000000000        0x0
 .eh_frame      0x0000000000000000        0x0 c:/program files/microchip/xc32/v4.60/bin/bin/../../lib/gcc/pic32c/8.3.1/thumb/v7e-m+fp/hard/crtbegin.o

.config_00804000.__config_00804000%48
                0x0000000000804000        0x4
 .config_00804000.__config_00804000
                0x0000000000804000        0x4 build/default/debug/_ext/1171490990/initialization.o
                0x0000000000804000                __config_00804000

.config_00804004.__config_00804004%49
                0x0000000000804004        0x4
 .config_00804004.__config_00804004
                0x0000000000804004        0x4 build/default/debug/_ext/1171490990/initialization.o
                0x0000000000804004                __config_00804004

.config_00804008.__config_00804008%50
                0x0000000000804008        0x4
 .config_00804008.__config_00804008
                0x0000000000804008        0x4 build/default/debug/_ext/1171490990/initialization.o
                0x0000000000804008                __config_00804008

.text.__printf_core%51
                0x0000000000000288      0x308
 .text.__printf_core
                0x0000000000000288      0x308 c:/program files/microchip/xc32/v4.60/bin/bin/../../lib/gcc/pic32c/8.3.1/../../../../pic32c/lib/thumb/v7e-m+fp/hard\libg-musl.a(__printf_core.o)
                0x0000000000000288                __printf_core

.text%52        0x0000000000000590      0x2bc
 .text          0x0000000000000590      0x2bc c:/program files/microchip/xc32/v4.60/bin/bin/../../lib/gcc/pic32c/8.3.1/thumb/v7e-m+fp/hard\libgcc.a(_udivmoddi4.o)
                0x0000000000000590                __udivmoddi4

.dinit%53       0x000000000000084c      0x280
 .dinit         0x000000000000084c      0x280 data_init

.text.xTaskCreate%54
                0x0000000000000acc      0x1ec
 .text.xTaskCreate
                0x0000000000000acc      0x1ec build/default/debug/_ext/404212886/FreeRTOS_tasks.o
                0x0000000000000acc                xTaskCreate

.text.Actuator_Task%55
                0x0000000000000cb8      0x19c
 .text.Actuator_Task
                0x0000000000000cb8      0x19c build/default/debug/_ext/1360937237/actuator.o
                0x0000000000000cb8                Actuator_Task

.text.xTaskIncrementTick%56
                0x0000000000000e54      0x190
 .text.xTaskIncrementTick
                0x0000000000000e54      0x190 build/default/debug/_ext/404212886/FreeRTOS_tasks.o
                0x0000000000000e54                xTaskIncrementTick

.text.CLOCK_Initialize%57
                0x0000000000000fe4      0x17c
 .text.CLOCK_Initialize
                0x0000000000000fe4      0x17c build/default/debug/_ext/1984496892/plib_clock.o
                0x0000000000000fe4                CLOCK_Initialize

.text.xTaskResumeAll%58
                0x0000000000001160      0x170
 .text.xTaskResumeAll
                0x0000000000001160      0x170 build/default/debug/_ext/404212886/FreeRTOS_tasks.o
                0x0000000000001160                xTaskResumeAll

.text.DMAC_ChannelTransfer%59
                0x00000000000012d0       0xe8
 .text.DMAC_ChannelTransfer
                0x00000000000012d0       0xe8 build/default/debug/_ext/1865161661/plib_dmac.o
                0x00000000000012d0                DMAC_ChannelTransfer

.text.prvAddCurrentTaskToDelayedList%60
                0x00000000000013b8       0xbc
 .text.prvAddCurrentTaskToDelayedList
                0x00000000000013b8       0xbc build/default/debug/_ext/404212886/FreeRTOS_tasks.o

.text.NeoPixel_HSVtoRGB%61
                0x0000000000001474       0xb8
 .text.NeoPixel_HSVtoRGB
                0x0000000000001474       0xb8 build/default/debug/_ext/1360937237/neopixel.o
                0x0000000000001474                NeoPixel_HSVtoRGB

.text.vTaskSwitchContext%62
                0x000000000000152c       0xac
 .text.vTaskSwitchContext
                0x000000000000152c       0xac build/default/debug/_ext/404212886/FreeRTOS_tasks.o
                0x000000000000152c                vTaskSwitchContext

.text.__pop_int%63
                0x00000000000015d8       0xac
 .text.__pop_int
                0x00000000000015d8       0xac c:/program files/microchip/xc32/v4.60/bin/bin/../../lib/gcc/pic32c/8.3.1/../../../../pic32c/lib/thumb/v7e-m+fp/hard\libg-musl.a(__pop_int.o)
                0x00000000000015d8                __pop_int_needed
                0x00000000000015d8                __pop_int

.text.NeoPixel_SetPixel%64
                0x0000000000001684       0x9c
 .text.NeoPixel_SetPixel
                0x0000000000001684       0x9c build/default/debug/_ext/1360937237/neopixel.o
                0x0000000000001684                NeoPixel_SetPixel

.text.Reset_Handler%65
                0x0000000000001720       0x8c
 .text.Reset_Handler
                0x0000000000001720       0x8c build/default/debug/_ext/1171490990/startup_xc32.o
                0x0000000000001720                Reset_Handler

.text.main%66   0x00000000000017ac       0x8c
 .text.main     0x00000000000017ac       0x8c build/default/debug/_ext/1360937237/main.o
                0x00000000000017ac                main

.text.__write_buffered%67
                0x0000000000001838       0x8a
 .text.__write_buffered
                0x0000000000001838       0x8a c:/program files/microchip/xc32/v4.60/bin/bin/../../lib/gcc/pic32c/8.3.1/../../../../pic32c/lib/thumb/v7e-m+fp/hard\libg-musl.a(__stdio_write.o)
                0x0000000000001838                __do_write

.text.pvPortMalloc%68
                0x00000000000018c4       0x88
 .text.pvPortMalloc
                0x00000000000018c4       0x88 build/default/debug/_ext/1665200909/heap_1.o
                0x00000000000018c4                pvPortMalloc

.text.vTaskStartScheduler%69
                0x000000000000194c       0x88
 .text.vTaskStartScheduler
                0x000000000000194c       0x88 build/default/debug/_ext/404212886/FreeRTOS_tasks.o
                0x000000000000194c                vTaskStartScheduler

.text.DMAC_channel_interruptHandler%70
                0x00000000000019d4       0x84
 .text.DMAC_channel_interruptHandler
                0x00000000000019d4       0x84 build/default/debug/_ext/1865161661/plib_dmac.o

.text.__pad%71  0x0000000000001a58       0x84
 .text.__pad    0x0000000000001a58       0x84 c:/program files/microchip/xc32/v4.60/bin/bin/../../lib/gcc/pic32c/8.3.1/../../../../pic32c/lib/thumb/v7e-m+fp/hard\libg-musl.a(__printf_core.o)
                0x0000000000001a58                __pad

.text.__simple_search_fl%72
                0x0000000000001adc       0x84
 .text.__simple_search_fl
                0x0000000000001adc       0x84 c:/program files/microchip/xc32/v4.60/bin/bin/../../lib/gcc/pic32c/8.3.1/../../../../pic32c/lib/thumb/v7e-m+fp/hard\liblmalloc-musl.a(lite_free.o)
                0x0000000000001adc                __simple_search_fl

.text.PORT_Initialize%73
                0x0000000000001b60       0x7c
 .text.PORT_Initialize
                0x0000000000001b60       0x7c build/default/debug/_ext/1865521619/plib_port.o
                0x0000000000001b60                PORT_Initialize

.text.__pop_ptr%74
                0x0000000000001bdc       0x7c
 .text.__pop_ptr
                0x0000000000001bdc       0x7c c:/program files/microchip/xc32/v4.60/bin/bin/../../lib/gcc/pic32c/8.3.1/../../../../pic32c/lib/thumb/v7e-m+fp/hard\libg-musl.a(__pop_ptr.o)
                0x0000000000001bdc                __pop_ptr
                0x0000000000001bdc                __pop_ptr_needed

.text.__cvt_u%75
                0x0000000000001c58       0x78
 .text.__cvt_u  0x0000000000001c58       0x78 c:/program files/microchip/xc32/v4.60/bin/bin/../../lib/gcc/pic32c/8.3.1/../../../../pic32c/lib/thumb/v7e-m+fp/hard\libg-musl.a(__cvt_u.o)
                0x0000000000001c58                __cvt_u

.text.__stdio_write_buffered%76
                0x0000000000001cd0       0x76
 .text.__stdio_write_buffered
                0x0000000000001cd0       0x76 c:/program files/microchip/xc32/v4.60/bin/bin/../../lib/gcc/pic32c/8.3.1/../../../../pic32c/lib/thumb/v7e-m+fp/hard\libg-musl.a(__stdio_write.o)
                0x0000000000001cd0                __stdio_write_buffered

.text.NeoPixel_GreenPurple%77
                0x0000000000001d48       0x64
 .text.NeoPixel_GreenPurple
                0x0000000000001d48       0x64 build/default/debug/_ext/1360937237/neopixel.o
                0x0000000000001d48                NeoPixel_GreenPurple

.text.xPortPendSVHandler%78
                0x0000000000001dac       0x60
 .text.xPortPendSVHandler
                0x0000000000001dac       0x60 build/default/debug/_ext/246609638/port.o
                0x0000000000001dac                xPortPendSVHandler

.text.__stdio_read%79
                0x0000000000001e0c       0x60
 .text.__stdio_read
                0x0000000000001e0c       0x60 c:/program files/microchip/xc32/v4.60/bin/bin/../../lib/gcc/pic32c/8.3.1/../../../../pic32c/lib/thumb/v7e-m+fp/hard\libg-musl.a(__stdio_read.o)
                0x0000000000001e0c                __stdio_read

.text.__simple_malloc%80
                0x0000000000001e6c       0x60
 .text.__simple_malloc
                0x0000000000001e6c       0x60 c:/program files/microchip/xc32/v4.60/bin/bin/../../lib/gcc/pic32c/8.3.1/../../../../pic32c/lib/thumb/v7e-m+fp/hard\liblmalloc-musl.a(lite_malloc.o)
                0x0000000000001e6c                __malloc0
                0x0000000000001e6c                __simple_malloc
                0x0000000000001e6c                malloc

.text.TCC0_PWMInitialize%81
                0x0000000000001ecc       0x5c
 .text.TCC0_PWMInitialize
                0x0000000000001ecc       0x5c build/default/debug/_ext/60181570/plib_tcc0.o
                0x0000000000001ecc                TCC0_PWMInitialize

.text.__libc_start_init%82
                0x0000000000001f28       0x5c
 .text.__libc_start_init
                0x0000000000001f28       0x5c c:/program files/microchip/xc32/v4.60/bin/bin/../../lib/gcc/pic32c/8.3.1/../../../../pic32c/lib/thumb/v7e-m+fp/hard\libg-musl.a(__libc_start_main.o)
                0x0000000000001f28                __libc_init_array

.text.__stdio_close_rw%83
                0x0000000000001f84       0x5c
 .text.__stdio_close_rw
                0x0000000000001f84       0x5c c:/program files/microchip/xc32/v4.60/bin/bin/../../lib/gcc/pic32c/8.3.1/../../../../pic32c/lib/thumb/v7e-m+fp/hard\libg-musl.a(__stdio_close.o)
                0x0000000000001f84                __stdio_close_rw

.text.DMAC_Initialize%84
                0x0000000000001fe0       0x58
 .text.DMAC_Initialize
                0x0000000000001fe0       0x58 build/default/debug/_ext/1865161661/plib_dmac.o
                0x0000000000001fe0                DMAC_Initialize

.text.NVIC_Initialize%85
                0x0000000000002038       0x58
 .text.NVIC_Initialize
                0x0000000000002038       0x58 build/default/debug/_ext/1865468468/plib_nvic.o
                0x0000000000002038                NVIC_Initialize

.text.__fmt_u%86
                0x0000000000002090       0x56
 .text.__fmt_u  0x0000000000002090       0x56 c:/program files/microchip/xc32/v4.60/bin/bin/../../lib/gcc/pic32c/8.3.1/../../../../pic32c/lib/thumb/v7e-m+fp/hard\libg-musl.a(__fmt_u.o)
                0x0000000000002090                __fmt_u_needed
                0x0000000000002090                __fmt_u

.text.SYS_Initialize%87
                0x00000000000020e8       0x50
 .text.SYS_Initialize
                0x00000000000020e8       0x50 build/default/debug/_ext/1171490990/initialization.o
                0x00000000000020e8                SYS_Initialize

.text.SERCOM5_USART_Read%88
                0x0000000000002138       0x50
 .text.SERCOM5_USART_Read
                0x0000000000002138       0x50 build/default/debug/_ext/504274921/plib_sercom5_usart.o
                0x0000000000002138                SERCOM5_USART_Read

.text.__overflow%89
                0x0000000000002188       0x4e
 .text.__overflow
                0x0000000000002188       0x4e c:/program files/microchip/xc32/v4.60/bin/bin/../../lib/gcc/pic32c/8.3.1/../../../../pic32c/lib/thumb/v7e-m+fp/hard\libg-musl.a(__overflow.o)
                0x0000000000002188                __overflow

.text.xPortStartScheduler%90
                0x00000000000021d8       0x4c
 .text.xPortStartScheduler
                0x00000000000021d8       0x4c build/default/debug/_ext/246609638/port.o
                0x00000000000021d8                xPortStartScheduler

.text.prvCheckTasksWaitingTermination%91
                0x0000000000002224       0x4c
 .text.prvCheckTasksWaitingTermination
                0x0000000000002224       0x4c build/default/debug/_ext/404212886/FreeRTOS_tasks.o

.text.setvbuf%92
                0x0000000000002270       0x4c
 .text.setvbuf  0x0000000000002270       0x4c c:/program files/microchip/xc32/v4.60/bin/bin/../../lib/gcc/pic32c/8.3.1/../../../../pic32c/lib/thumb/v7e-m+fp/hard\libg-musl.a(setvbuf.o)
                0x0000000000002270                setvbuf

.text._sbrk%93  0x00000000000022bc       0x4c
 .text._sbrk    0x00000000000022bc       0x4c c:/program files/microchip/xc32/v4.60/bin/bin/../../lib/gcc/pic32c/8.3.1/../../../../pic32c/lib/thumb/v7e-m+fp/hard\libpic32c.a(sbrk.o)
                0x00000000000022bc                _sbrk

.text.act_reset%94
                0x0000000000002308       0x48
 .text.act_reset
                0x0000000000002308       0x48 build/default/debug/_ext/1360937237/actuator.o

.text.atoi%95   0x0000000000002350       0x46
 .text.atoi     0x0000000000002350       0x46 c:/program files/microchip/xc32/v4.60/bin/bin/../../lib/gcc/pic32c/8.3.1/../../../../pic32c/lib/thumb/v7e-m+fp/hard\libg-musl.a(atoi.o)
                0x0000000000002350                atoi

.rodata.Actuator_Task.str1.4%96
                0x0000000000002398       0x44
 .rodata.Actuator_Task.str1.4
                0x0000000000002398       0x44 build/default/debug/_ext/1360937237/actuator.o

.text.SERCOM5_USART_Write%97
                0x00000000000023dc       0x44
 .text.SERCOM5_USART_Write
                0x00000000000023dc       0x44 build/default/debug/_ext/504274921/plib_sercom5_usart.o
                0x00000000000023dc                SERCOM5_USART_Write

.text%98        0x0000000000002420       0x40
 .text          0x0000000000002420       0x40 c:/program files/microchip/xc32/v4.60/bin/bin/../../lib/gcc/pic32c/8.3.1/thumb/v7e-m+fp/hard/crtbegin.o

.text.__putc%99
                0x0000000000002460       0x3e
 .text.__putc   0x0000000000002460       0x3e c:/program files/microchip/xc32/v4.60/bin/bin/../../lib/gcc/pic32c/8.3.1/../../../../pic32c/lib/thumb/v7e-m+fp/hard\libg-musl.a(__putc.o)
                0x0000000000002460                __putc_needed
                0x0000000000002460                __putc

.text.__fmt_state%100
                0x00000000000024a0       0x3c
 .text.__fmt_state
                0x00000000000024a0       0x3c c:/program files/microchip/xc32/v4.60/bin/bin/../../lib/gcc/pic32c/8.3.1/../../../../pic32c/lib/thumb/v7e-m+fp/hard\libg-musl.a(__printf_core.o)
                0x00000000000024a0                __fmt_state

.text.__out%101
                0x00000000000024dc       0x3c
 .text.__out    0x00000000000024dc       0x3c c:/program files/microchip/xc32/v4.60/bin/bin/../../lib/gcc/pic32c/8.3.1/../../../../pic32c/lib/thumb/v7e-m+fp/hard\libg-musl.a(__out.o)
                0x00000000000024dc                __out
                0x00000000000024dc                __out_needed

.text.__pic32c_data_initialization%102
                0x0000000000002518       0x38
 .text.__pic32c_data_initialization
                0x0000000000002518       0x38 c:/program files/microchip/xc32/v4.60/bin/bin/../../lib/gcc/pic32c/8.3.1/../../../../pic32c/lib/thumb/v7e-m+fp/hard\libpic32c.a(data_init.o)
                0x0000000000002518                __pic32c_data_initialization

.text.__putc_unbuffered%103
                0x0000000000002550       0x38
 .text.__putc_unbuffered
                0x0000000000002550       0x38 c:/program files/microchip/xc32/v4.60/bin/bin/../../lib/gcc/pic32c/8.3.1/../../../../pic32c/lib/thumb/v7e-m+fp/hard\libg-musl.a(putc.o)
                0x0000000000002550                __putc_unbuffered

.text.vListInsert%104
                0x0000000000002588       0x34
 .text.vListInsert
                0x0000000000002588       0x34 build/default/debug/_ext/404212886/list.o
                0x0000000000002588                vListInsert

.text.vTaskDelay%105
                0x00000000000025bc       0x34
 .text.vTaskDelay
                0x00000000000025bc       0x34 build/default/debug/_ext/404212886/FreeRTOS_tasks.o
                0x00000000000025bc                vTaskDelay

.rodata.main.str1.4%106
                0x00000000000025f0       0x34
 .rodata.main.str1.4
                0x00000000000025f0       0x34 build/default/debug/_ext/1360937237/main.o

.text.SERCOM5_USART_Initialize%107
                0x0000000000002624       0x34
 .text.SERCOM5_USART_Initialize
                0x0000000000002624       0x34 build/default/debug/_ext/504274921/plib_sercom5_usart.o
                0x0000000000002624                SERCOM5_USART_Initialize

.text.SERCOM5_USART_ErrorClear%108
                0x0000000000002658       0x30
 .text.SERCOM5_USART_ErrorClear
                0x0000000000002658       0x30 build/default/debug/_ext/504274921/plib_sercom5_usart.o

.text%109       0x0000000000002688       0x30
 .text          0x0000000000002688       0x30 c:/program files/microchip/xc32/v4.60/bin/bin/../../lib/gcc/pic32c/8.3.1/thumb/v7e-m+fp/hard\libgcc.a(_aeabi_uldivmod.o)
                0x0000000000002688                __aeabi_uldivmod

.text._sbrk_init%110
                0x00000000000026b8       0x30
 .text._sbrk_init
                0x00000000000026b8       0x30 c:/program files/microchip/xc32/v4.60/bin/bin/../../lib/gcc/pic32c/8.3.1/../../../../pic32c/lib/thumb/v7e-m+fp/hard\libpic32c.a(sbrk.o)

.text.pxPortInitialiseStack%111
                0x00000000000026e8       0x2c
 .text.pxPortInitialiseStack
                0x00000000000026e8       0x2c build/default/debug/_ext/246609638/port.o
                0x00000000000026e8                pxPortInitialiseStack

.text.xPortSysTickHandler%112
                0x0000000000002714       0x2c
 .text.xPortSysTickHandler
                0x0000000000002714       0x2c build/default/debug/_ext/246609638/port.o
                0x0000000000002714                xPortSysTickHandler

.text.NeoPixel_Show%113
                0x0000000000002740       0x2c
 .text.NeoPixel_Show
                0x0000000000002740       0x2c build/default/debug/_ext/1360937237/neopixel.o
                0x0000000000002740                NeoPixel_Show

.text.Actuator_InitPorts%114
                0x000000000000276c       0x2c
 .text.Actuator_InitPorts
                0x000000000000276c       0x2c build/default/debug/_ext/1360937237/actuator.o
                0x000000000000276c                Actuator_InitPorts

.text.interpolateNum%115
                0x0000000000002798       0x2a
 .text.interpolateNum
                0x0000000000002798       0x2a build/default/debug/_ext/1360937237/actuator.o

.text.__pop_float%116
                0x00000000000027c2       0x2a
 .text.__pop_float
                0x00000000000027c2       0x2a c:/program files/microchip/xc32/v4.60/bin/bin/../../lib/gcc/pic32c/8.3.1/../../../../pic32c/lib/thumb/v7e-m+fp/hard\libg-musl.a(__pop_float.o)
                0x00000000000027c2                __pop_float_needed
                0x00000000000027c2                __pop_float

.text.fwrite%117
                0x00000000000027ec       0x2a
 .text.fwrite   0x00000000000027ec       0x2a c:/program files/microchip/xc32/v4.60/bin/bin/../../lib/gcc/pic32c/8.3.1/../../../../pic32c/lib/thumb/v7e-m+fp/hard\libg-musl.a(fwrite.o)
                0x00000000000027ec                fwrite
                0x00000000000027ec                fwrite_unlocked

.text.__readv%118
                0x0000000000002816       0x2a
 .text.__readv  0x0000000000002816       0x2a c:/program files/microchip/xc32/v4.60/bin/bin/../../lib/gcc/pic32c/8.3.1/../../../../pic32c/lib/thumb/v7e-m+fp/hard\libg-musl.a(readv.o)
                0x0000000000002816                readv

.text.__writev%119
                0x0000000000002840       0x2a
 .text.__writev
                0x0000000000002840       0x2a c:/program files/microchip/xc32/v4.60/bin/bin/../../lib/gcc/pic32c/8.3.1/../../../../pic32c/lib/thumb/v7e-m+fp/hard\libg-musl.a(writev.o)
                0x0000000000002840                writev

.text.SERCOM1_SPI_Initialize%120
                0x000000000000286c       0x28
 .text.SERCOM1_SPI_Initialize
                0x000000000000286c       0x28 build/default/debug/_ext/17022449/plib_sercom1_spi_master.o
                0x000000000000286c                SERCOM1_SPI_Initialize

.text.prvPortStartFirstTask%121
                0x0000000000002894       0x28
 .text.prvPortStartFirstTask
                0x0000000000002894       0x28 build/default/debug/_ext/246609638/port.o

.text.vPortSetupTimerInterrupt%122
                0x00000000000028bc       0x28
 .text.vPortSetupTimerInterrupt
                0x00000000000028bc       0x28 build/default/debug/_ext/246609638/port.o
                0x00000000000028bc                vPortSetupTimerInterrupt

.text.prvResetNextTaskUnblockTime%123
                0x00000000000028e4       0x28
 .text.prvResetNextTaskUnblockTime
                0x00000000000028e4       0x28 build/default/debug/_ext/404212886/FreeRTOS_tasks.o

.text.prvIdleTask%124
                0x000000000000290c       0x28
 .text.prvIdleTask
                0x000000000000290c       0x28 build/default/debug/_ext/404212886/FreeRTOS_tasks.o

.text.act_up%125
                0x0000000000002934       0x28
 .text.act_up   0x0000000000002934       0x28 build/default/debug/_ext/1360937237/actuator.o

.text.puts%126  0x000000000000295c       0x28
 .text.puts     0x000000000000295c       0x28 c:/program files/microchip/xc32/v4.60/bin/bin/../../lib/gcc/pic32c/8.3.1/../../../../pic32c/lib/thumb/v7e-m+fp/hard\libg-musl.a(puts.o)
                0x000000000000295c                puts

.text.__towrite_rw%127
                0x0000000000002984       0x28
 .text.__towrite_rw
                0x0000000000002984       0x28 c:/program files/microchip/xc32/v4.60/bin/bin/../../lib/gcc/pic32c/8.3.1/../../../../pic32c/lib/thumb/v7e-m+fp/hard\libg-musl.a(__towrite_rw.o)
                0x0000000000002984                __towrite_rw
                0x0000000000002984                __towrite_rw_needed

.text.SYSTICK_TimerInitialize%128
                0x00000000000029ac       0x24
 .text.SYSTICK_TimerInitialize
                0x00000000000029ac       0x24 build/default/debug/_ext/1827571544/plib_systick.o
                0x00000000000029ac                SYSTICK_TimerInitialize

.text.TRNG_ReadData%129
                0x00000000000029d0       0x24
 .text.TRNG_ReadData
                0x00000000000029d0       0x24 build/default/debug/_ext/1865643529/plib_trng.o
                0x00000000000029d0                TRNG_ReadData

.text.NeoPixel_Init%130
                0x00000000000029f4       0x24
 .text.NeoPixel_Init
                0x00000000000029f4       0x24 build/default/debug/_ext/1360937237/neopixel.o
                0x00000000000029f4                NeoPixel_Init

.text.__wrap_printf%131
                0x0000000000002a18       0x24
 .text.__wrap_printf
                0x0000000000002a18       0x24 c:/program files/microchip/xc32/v4.60/bin/bin/../../lib/gcc/pic32c/8.3.1/../../../../pic32c/lib/thumb/v7e-m+fp/hard\libg-musl.a(__sio_printf_nu.o)
                0x0000000000002a18                _dprintf_nu
                0x0000000000002a18                _printf_nu

.text.uxListRemove%132
                0x0000000000002a3c       0x22
 .text.uxListRemove
                0x0000000000002a3c       0x22 build/default/debug/_ext/404212886/list.o
                0x0000000000002a3c                uxListRemove

.text.fputs%133
                0x0000000000002a5e       0x22
 .text.fputs    0x0000000000002a5e       0x22 c:/program files/microchip/xc32/v4.60/bin/bin/../../lib/gcc/pic32c/8.3.1/../../../../pic32c/lib/thumb/v7e-m+fp/hard\libg-musl.a(fputs.o)
                0x0000000000002a5e                fputs
                0x0000000000002a5e                fputs_unlocked

.text.prvTaskExitError%134
                0x0000000000002a80       0x20
 .text.prvTaskExitError
                0x0000000000002a80       0x20 build/default/debug/_ext/246609638/port.o

.text.vPortSVCHandler%135
                0x0000000000002aa0       0x20
 .text.vPortSVCHandler
                0x0000000000002aa0       0x20 build/default/debug/_ext/246609638/port.o
                0x0000000000002aa0                vPortSVCHandler

.text.vPortEnterCritical%136
                0x0000000000002ac0       0x20
 .text.vPortEnterCritical
                0x0000000000002ac0       0x20 build/default/debug/_ext/246609638/port.o
                0x0000000000002ac0                vPortEnterCritical

.text.Blinky_Task%137
                0x0000000000002ae0       0x20
 .text.Blinky_Task
                0x0000000000002ae0       0x20 build/default/debug/_ext/1360937237/main.o
                0x0000000000002ae0                Blinky_Task

.text._get_heap_left_space%138
                0x0000000000002b00       0x20
 .text._get_heap_left_space
                0x0000000000002b00       0x20 c:/program files/microchip/xc32/v4.60/bin/bin/../../lib/gcc/pic32c/8.3.1/../../../../pic32c/lib/thumb/v7e-m+fp/hard\libpic32c.a(sbrk.o)
                0x0000000000002b00                _get_heap_left_space

.text.read%139  0x0000000000002b20       0x1e
 .text.read     0x0000000000002b20       0x1e build/default/debug/_ext/163028504/xc32_monitor.o
                0x0000000000002b20                read

.text.__dinit_copy%140
                0x0000000000002b3e       0x1e
 .text.__dinit_copy
                0x0000000000002b3e       0x1e c:/program files/microchip/xc32/v4.60/bin/bin/../../lib/gcc/pic32c/8.3.1/../../../../pic32c/lib/thumb/v7e-m+fp/hard\libpic32c.a(pic32_data_init_copy.o)
                0x0000000000002b3e                __dinit_copy_needed
                0x0000000000002b3e                __dinit_copy

.text.write%141
                0x0000000000002b5c       0x1c
 .text.write    0x0000000000002b5c       0x1c build/default/debug/_ext/163028504/xc32_monitor.o
                0x0000000000002b5c                write

.text.NeoPixel_Task%142
                0x0000000000002b78       0x1c
 .text.NeoPixel_Task
                0x0000000000002b78       0x1c build/default/debug/_ext/1360937237/main.o
                0x0000000000002b78                NeoPixel_Task

.text.memcpy%143
                0x0000000000002b94       0x1c
 .text.memcpy   0x0000000000002b94       0x1c c:/program files/microchip/xc32/v4.60/bin/bin/../../lib/gcc/pic32c/8.3.1/../../../../pic32c/lib/thumb/v7e-m+fp/hard\libc-size-musl.a(memcpy.o)
                0x0000000000002b94                memcpy

.text.__vfprintf%144
                0x0000000000002bb0       0x1c
 .text.__vfprintf
                0x0000000000002bb0       0x1c c:/program files/microchip/xc32/v4.60/bin/bin/../../lib/gcc/pic32c/8.3.1/../../../../pic32c/lib/thumb/v7e-m+fp/hard\libg-musl.a(__int_vfprintf.o)
                0x0000000000002bb0                __vfprintf

.text.__towrite%145
                0x0000000000002bcc       0x18
 .text.__towrite
                0x0000000000002bcc       0x18 c:/program files/microchip/xc32/v4.60/bin/bin/../../lib/gcc/pic32c/8.3.1/../../../../pic32c/lib/thumb/v7e-m+fp/hard\libg-musl.a(__towrite.o)
                0x0000000000002bcc                __towrite

.text.__fwrite%146
                0x0000000000002be4       0x18
 .text.__fwrite
                0x0000000000002be4       0x18 c:/program files/microchip/xc32/v4.60/bin/bin/../../lib/gcc/pic32c/8.3.1/../../../../pic32c/lib/thumb/v7e-m+fp/hard\libg-musl.a(__fwrite.o)
                0x0000000000002be4                __fwrite
                0x0000000000002be4                __fwrite_needed

.text.strlen%147
                0x0000000000002bfc       0x18
 .text.strlen   0x0000000000002bfc       0x18 c:/program files/microchip/xc32/v4.60/bin/bin/../../lib/gcc/pic32c/8.3.1/../../../../pic32c/lib/thumb/v7e-m+fp/hard\libc-size-musl.a(strlen.o)
                0x0000000000002bfc                strlen

.text.__init_search_fl%148
                0x0000000000002c14       0x18
 .text.__init_search_fl
                0x0000000000002c14       0x18 c:/program files/microchip/xc32/v4.60/bin/bin/../../lib/gcc/pic32c/8.3.1/../../../../pic32c/lib/thumb/v7e-m+fp/hard\liblmalloc-musl.a(lite_free.o)
                0x0000000000002c14                __init_search_fl

.text.vListInitialise%149
                0x0000000000002c2c       0x16
 .text.vListInitialise
                0x0000000000002c2c       0x16 build/default/debug/_ext/404212886/list.o
                0x0000000000002c2c                vListInitialise

.rodata%150     0x0000000000002c42       0x16
 .rodata        0x0000000000002c42       0x16 c:/program files/microchip/xc32/v4.60/bin/bin/../../lib/gcc/pic32c/8.3.1/../../../../pic32c/lib/thumb/v7e-m+fp/hard\libg-musl.a(__printf_core.o)

.text.__expand_heap%151
                0x0000000000002c58       0x16
 .text.__expand_heap
                0x0000000000002c58       0x16 c:/program files/microchip/xc32/v4.60/bin/bin/../../lib/gcc/pic32c/8.3.1/../../../../pic32c/lib/thumb/v7e-m+fp/hard\libg-musl.a(expand_heap.o)
                0x0000000000002c58                __expand_heap

.text.EVSYS_Initialize%152
                0x0000000000002c70       0x14
 .text.EVSYS_Initialize
                0x0000000000002c70       0x14 build/default/debug/_ext/1986646378/plib_evsys.o
                0x0000000000002c70                EVSYS_Initialize

.text.vPortEnableVFP%153
                0x0000000000002c84       0x14
 .text.vPortEnableVFP
                0x0000000000002c84       0x14 build/default/debug/_ext/246609638/port.o

.text.vPortExitCritical%154
                0x0000000000002c98       0x14
 .text.vPortExitCritical
                0x0000000000002c98       0x14 build/default/debug/_ext/246609638/port.o
                0x0000000000002c98                vPortExitCritical

.text.NeoPixel_DMA_Callback%155
                0x0000000000002cac       0x14
 .text.NeoPixel_DMA_Callback
                0x0000000000002cac       0x14 build/default/debug/_ext/1360937237/neopixel.o

.rodata%156     0x0000000000002cc0       0x14
 .rodata        0x0000000000002cc0       0x14 c:/program files/microchip/xc32/v4.60/bin/bin/../../lib/gcc/pic32c/8.3.1/../../../../pic32c/lib/thumb/v7e-m+fp/hard\libpic32c.a(data_init.o)

.text.memset%157
                0x0000000000002cd4       0x14
 .text.memset   0x0000000000002cd4       0x14 c:/program files/microchip/xc32/v4.60/bin/bin/../../lib/gcc/pic32c/8.3.1/../../../../pic32c/lib/thumb/v7e-m+fp/hard\libc-size-musl.a(memset.o)
                0x0000000000002cd4                memset

.text.__init_stdout%158
                0x0000000000002ce8       0x14
 .text.__init_stdout
                0x0000000000002ce8       0x14 c:/program files/microchip/xc32/v4.60/bin/bin/../../lib/gcc/pic32c/8.3.1/../../../../pic32c/lib/thumb/v7e-m+fp/hard\libg-musl.a(stdout.o)
                0x0000000000002ce8                __init_stdout

.text.vApplicationStackOverflowHook%159
                0x0000000000002cfc       0x12
 .text.vApplicationStackOverflowHook
                0x0000000000002cfc       0x12 build/default/debug/_ext/1171490990/freertos_hooks.o
                0x0000000000002cfc                vApplicationStackOverflowHook

.text.vApplicationMallocFailedHook%160
                0x0000000000002d0e       0x12
 .text.vApplicationMallocFailedHook
                0x0000000000002d0e       0x12 build/default/debug/_ext/1171490990/freertos_hooks.o
                0x0000000000002d0e                vApplicationMallocFailedHook

.text.__dinit_clear%161
                0x0000000000002d20       0x12
 .text.__dinit_clear
                0x0000000000002d20       0x12 c:/program files/microchip/xc32/v4.60/bin/bin/../../lib/gcc/pic32c/8.3.1/../../../../pic32c/lib/thumb/v7e-m+fp/hard\libpic32c.a(pic32_data_init_clear.o)
                0x0000000000002d20                __dinit_clear
                0x0000000000002d20                __dinit_clear_needed

.text.DMAC_ChannelCallbackRegister%162
                0x0000000000002d34       0x10
 .text.DMAC_ChannelCallbackRegister
                0x0000000000002d34       0x10 build/default/debug/_ext/1865161661/plib_dmac.o
                0x0000000000002d34                DMAC_ChannelCallbackRegister

.text.NVMCTRL_Initialize%163
                0x0000000000002d44       0x10
 .text.NVMCTRL_Initialize
                0x0000000000002d44       0x10 build/default/debug/_ext/1593096446/plib_nvmctrl.o
                0x0000000000002d44                NVMCTRL_Initialize

.text.vTaskSuspendAll%164
                0x0000000000002d54       0x10
 .text.vTaskSuspendAll
                0x0000000000002d54       0x10 build/default/debug/_ext/404212886/FreeRTOS_tasks.o
                0x0000000000002d54                vTaskSuspendAll

.text.setbuf%165
                0x0000000000002d64       0x10
 .text.setbuf   0x0000000000002d64       0x10 c:/program files/microchip/xc32/v4.60/bin/bin/../../lib/gcc/pic32c/8.3.1/../../../../pic32c/lib/thumb/v7e-m+fp/hard\libg-musl.a(setbuf.o)
                0x0000000000002d64                setbuf

.text.__init_stdio%166
                0x0000000000002d74       0x10
 .text.__init_stdio
                0x0000000000002d74       0x10 c:/program files/microchip/xc32/v4.60/bin/bin/../../lib/gcc/pic32c/8.3.1/../../../../pic32c/lib/thumb/v7e-m+fp/hard\libg-musl.a(__init_stdio.o)
                0x0000000000002d74                __init_stdio_needed
                0x0000000000002d74                __init_stdio

.text.tolower%167
                0x0000000000002d84        0xe
 .text.tolower  0x0000000000002d84        0xe c:/program files/microchip/xc32/v4.60/bin/bin/../../lib/gcc/pic32c/8.3.1/../../../../pic32c/lib/thumb/v7e-m+fp/hard\libg-musl.a(tolower.o)
                0x0000000000002d84                tolower

.text.DMAC_0_InterruptHandler%168
                0x0000000000002d92        0xa
 .text.DMAC_0_InterruptHandler
                0x0000000000002d92        0xa build/default/debug/_ext/1865161661/plib_dmac.o
                0x0000000000002d92                DMAC_0_InterruptHandler

.rodata.str1.1%169
                0x0000000000002d9c        0x8
 .rodata.str1.1
                0x0000000000002d9c        0x8 c:/program files/microchip/xc32/v4.60/bin/bin/../../lib/gcc/pic32c/8.3.1/../../../../pic32c/lib/thumb/v7e-m+fp/hard\libg-musl.a(__printf_core.o)

.text.putc%170  0x0000000000002da4        0x8
 .text.putc     0x0000000000002da4        0x8 c:/program files/microchip/xc32/v4.60/bin/bin/../../lib/gcc/pic32c/8.3.1/../../../../pic32c/lib/thumb/v7e-m+fp/hard\libg-musl.a(putc.o)
                0x0000000000002da4                putc
                0x0000000000002da4                fputc
                0x0000000000002da4                _IO_putc
                0x0000000000002da4                putc_unlocked

.text.__get_stdout%171
                0x0000000000002dac        0x8
 .text.__get_stdout
                0x0000000000002dac        0x8 c:/program files/microchip/xc32/v4.60/bin/bin/../../lib/gcc/pic32c/8.3.1/../../../../pic32c/lib/thumb/v7e-m+fp/hard\libg-musl.a(__stdout.o)
                0x0000000000002dac                __get_stdout
                0x0000000000002dac                __init_stdout_needed

.text.vListInitialiseItem%172
                0x0000000000002db4        0x6
 .text.vListInitialiseItem
                0x0000000000002db4        0x6 build/default/debug/_ext/404212886/list.o
                0x0000000000002db4                vListInitialiseItem

.text.__fwrite_min%173
                0x0000000000002dba        0x6
 .text.__fwrite_min
                0x0000000000002dba        0x6 c:/program files/microchip/xc32/v4.60/bin/bin/../../lib/gcc/pic32c/8.3.1/../../../../pic32c/lib/thumb/v7e-m+fp/hard\libg-musl.a(__out.o)
                0x0000000000002dba                __stdio_write_unbuffered
                0x0000000000002dba                __stdio_write

.text.close%174
                0x0000000000002dc0        0x6
 .text.close    0x0000000000002dc0        0x6 c:/program files/microchip/xc32/v4.60/bin/bin/../../lib/gcc/pic32c/8.3.1/../../../../pic32c/lib/thumb/v7e-m+fp/hard\libpic32c.a(close.o)
                0x0000000000002dc0                close

.text.Dummy_Handler%175
                0x0000000000002dc6        0x4
 .text.Dummy_Handler
                0x0000000000002dc6        0x4 build/default/debug/_ext/1171490990/interrupts.o
                0x0000000000002dc6                EIC_EXTINT_9_Handler
                0x0000000000002dc6                TCC0_MC5_Handler
                0x0000000000002dc6                SERCOM0_2_Handler
                0x0000000000002dc6                USB_SOF_HSOF_Handler
                0x0000000000002dc6                TCC4_OTHER_Handler
                0x0000000000002dc6                TCC2_MC2_Handler
                0x0000000000002dc6                EVSYS_0_Handler
                0x0000000000002dc6                TRNG_Handler
                0x0000000000002dc6                TC2_Handler
                0x0000000000002dc6                USB_TRCPT0_Handler
                0x0000000000002dc6                DAC_OTHER_Handler
                0x0000000000002dc6                AC_Handler
                0x0000000000002dc6                DAC_EMPTY_0_Handler
                0x0000000000002dc6                DMAC_OTHER_Handler
                0x0000000000002dc6                EIC_EXTINT_5_Handler
                0x0000000000002dc6                SERCOM3_1_Handler
                0x0000000000002dc6                SERCOM4_OTHER_Handler
                0x0000000000002dc6                SERCOM3_2_Handler
                0x0000000000002dc6                EIC_EXTINT_6_Handler
                0x0000000000002dc6                TCC4_MC0_Handler
                0x0000000000002dc6                EVSYS_3_Handler
                0x0000000000002dc6                QSPI_Handler
                0x0000000000002dc6                TCC2_MC0_Handler
                0x0000000000002dc6                PDEC_OTHER_Handler
                0x0000000000002dc6                TCC3_MC0_Handler
                0x0000000000002dc6                PDEC_MC1_Handler
                0x0000000000002dc6                TCC2_MC1_Handler
                0x0000000000002dc6                OSCCTRL_XOSC1_Handler
                0x0000000000002dc6                PDEC_MC0_Handler
                0x0000000000002dc6                EIC_EXTINT_4_Handler
                0x0000000000002dc6                EIC_EXTINT_7_Handler
                0x0000000000002dc6                SERCOM0_OTHER_Handler
                0x0000000000002dc6                EVSYS_OTHER_Handler
                0x0000000000002dc6                SERCOM0_0_Handler
                0x0000000000002dc6                RTC_Handler
                0x0000000000002dc6                SERCOM4_0_Handler
                0x0000000000002dc6                TCC1_MC0_Handler
                0x0000000000002dc6                SERCOM1_OTHER_Handler
                0x0000000000002dc6                TCC2_OTHER_Handler
                0x0000000000002dc6                EIC_EXTINT_11_Handler
                0x0000000000002dc6                SUPC_BODDET_Handler
                0x0000000000002dc6                EIC_EXTINT_14_Handler
                0x0000000000002dc6                OSC32KCTRL_Handler
                0x0000000000002dc6                EVSYS_1_Handler
                0x0000000000002dc6                TCC4_MC1_Handler
                0x0000000000002dc6                SUPC_OTHER_Handler
                0x0000000000002dc6                WDT_Handler
                0x0000000000002dc6                CAN0_Handler
                0x0000000000002dc6                EIC_EXTINT_15_Handler
                0x0000000000002dc6                EIC_EXTINT_1_Handler
                0x0000000000002dc6                TCC3_MC1_Handler
                0x0000000000002dc6                SERCOM5_0_Handler
                0x0000000000002dc6                TC4_Handler
                0x0000000000002dc6                TC1_Handler
                0x0000000000002dc6                TCC1_MC1_Handler
                0x0000000000002dc6                EIC_EXTINT_0_Handler
                0x0000000000002dc6                TCC1_OTHER_Handler
                0x0000000000002dc6                PAC_Handler
                0x0000000000002dc6                SERCOM4_1_Handler
                0x0000000000002dc6                TC3_Handler
                0x0000000000002dc6                Dummy_Handler
                0x0000000000002dc6                DAC_RESRDY_0_Handler
                0x0000000000002dc6                SERCOM5_1_Handler
                0x0000000000002dc6                DMAC_2_Handler
                0x0000000000002dc6                TCC0_MC4_Handler
                0x0000000000002dc6                USB_TRCPT1_Handler
                0x0000000000002dc6                SERCOM0_1_Handler
                0x0000000000002dc6                TCC0_MC3_Handler
                0x0000000000002dc6                EIC_EXTINT_12_Handler
                0x0000000000002dc6                OSCCTRL_DPLL0_Handler
                0x0000000000002dc6                SERCOM5_OTHER_Handler
                0x0000000000002dc6                PM_Handler
                0x0000000000002dc6                OSCCTRL_DFLL_Handler
                0x0000000000002dc6                DAC_RESRDY_1_Handler
                0x0000000000002dc6                DMAC_1_Handler
                0x0000000000002dc6                USB_OTHER_Handler
                0x0000000000002dc6                CAN1_Handler
                0x0000000000002dc6                TCC0_OTHER_Handler
                0x0000000000002dc6                EIC_EXTINT_10_Handler
                0x0000000000002dc6                TCC1_MC3_Handler
                0x0000000000002dc6                OSCCTRL_XOSC0_Handler
                0x0000000000002dc6                TCC0_MC0_Handler
                0x0000000000002dc6                EIC_EXTINT_2_Handler
                0x0000000000002dc6                SDHC0_Handler
                0x0000000000002dc6                SERCOM1_1_Handler
                0x0000000000002dc6                I2S_Handler
                0x0000000000002dc6                PCC_Handler
                0x0000000000002dc6                TCC3_OTHER_Handler
                0x0000000000002dc6                EIC_EXTINT_13_Handler
                0x0000000000002dc6                SERCOM1_0_Handler
                0x0000000000002dc6                PUKCC_Handler
                0x0000000000002dc6                SERCOM2_1_Handler
                0x0000000000002dc6                SERCOM1_2_Handler
                0x0000000000002dc6                SERCOM3_0_Handler
                0x0000000000002dc6                SERCOM4_2_Handler
                0x0000000000002dc6                TCC1_MC2_Handler
                0x0000000000002dc6                ADC1_RESRDY_Handler
                0x0000000000002dc6                NVMCTRL_1_Handler
                0x0000000000002dc6                SERCOM5_2_Handler
                0x0000000000002dc6                SERCOM2_2_Handler
                0x0000000000002dc6                DAC_EMPTY_1_Handler
                0x0000000000002dc6                ADC1_OTHER_Handler
                0x0000000000002dc6                OSCCTRL_DPLL1_Handler
                0x0000000000002dc6                EIC_EXTINT_3_Handler
                0x0000000000002dc6                SERCOM3_OTHER_Handler
                0x0000000000002dc6                EIC_EXTINT_8_Handler
                0x0000000000002dc6                NVMCTRL_0_Handler
                0x0000000000002dc6                ADC0_RESRDY_Handler
                0x0000000000002dc6                ADC0_OTHER_Handler
                0x0000000000002dc6                MCLK_Handler
                0x0000000000002dc6                EVSYS_2_Handler
                0x0000000000002dc6                SERCOM2_OTHER_Handler
                0x0000000000002dc6                FREQM_Handler
                0x0000000000002dc6                TC0_Handler
                0x0000000000002dc6                TCC0_MC1_Handler
                0x0000000000002dc6                DMAC_3_Handler
                0x0000000000002dc6                RAMECC_Handler
                0x0000000000002dc6                TC5_Handler
                0x0000000000002dc6                SERCOM2_0_Handler
                0x0000000000002dc6                AES_Handler
                0x0000000000002dc6                ICM_Handler
                0x0000000000002dc6                TCC0_MC2_Handler

.text.NonMaskableInt_Handler%176
                0x0000000000002dca        0x4
 .text.NonMaskableInt_Handler
                0x0000000000002dca        0x4 build/default/debug/_ext/1171490990/exceptions.o
                0x0000000000002dca                NonMaskableInt_Handler

.text.HardFault_Handler%177
                0x0000000000002dce        0x4
 .text.HardFault_Handler
                0x0000000000002dce        0x4 build/default/debug/_ext/1171490990/exceptions.o
                0x0000000000002dce                HardFault_Handler

.text.DebugMonitor_Handler%178
                0x0000000000002dd2        0x4
 .text.DebugMonitor_Handler
                0x0000000000002dd2        0x4 build/default/debug/_ext/1171490990/exceptions.o
                0x0000000000002dd2                DebugMonitor_Handler

.text.MemoryManagement_Handler%179
                0x0000000000002dd6        0x4
 .text.MemoryManagement_Handler
                0x0000000000002dd6        0x4 build/default/debug/_ext/1171490990/exceptions.o
                0x0000000000002dd6                MemoryManagement_Handler

.text.BusFault_Handler%180
                0x0000000000002dda        0x4
 .text.BusFault_Handler
                0x0000000000002dda        0x4 build/default/debug/_ext/1171490990/exceptions.o
                0x0000000000002dda                BusFault_Handler

.text.UsageFault_Handler%181
                0x0000000000002dde        0x4
 .text.UsageFault_Handler
                0x0000000000002dde        0x4 build/default/debug/_ext/1171490990/exceptions.o
                0x0000000000002dde                UsageFault_Handler

.text.__dummy_decompress%182
                0x0000000000002de2        0x4
 .text.__dummy_decompress
                0x0000000000002de2        0x4 c:/program files/microchip/xc32/v4.60/bin/bin/../../lib/gcc/pic32c/8.3.1/../../../../pic32c/lib/thumb/v7e-m+fp/hard\libpic32c.a(data_init.o)
                0x0000000000002de2                __dinit_decompress
                0x0000000000002de2                __dinit_copy_val_data
                0x0000000000002de2                __dinit_copy_emb

.text.__dummy_fmt3%183
                0x0000000000002de6        0x4
 .text.__dummy_fmt3
                0x0000000000002de6        0x4 c:/program files/microchip/xc32/v4.60/bin/bin/../../lib/gcc/pic32c/8.3.1/../../../../pic32c/lib/thumb/v7e-m+fp/hard\libg-musl.a(__printf_core.o)
                0x0000000000002de6                __fmt_d
                0x0000000000002de6                __fmt_o

.text.__dummy_fmt4%184
                0x0000000000002dea        0x4
 .text.__dummy_fmt4
                0x0000000000002dea        0x4 c:/program files/microchip/xc32/v4.60/bin/bin/../../lib/gcc/pic32c/8.3.1/../../../../pic32c/lib/thumb/v7e-m+fp/hard\libg-musl.a(__printf_core.o)
                0x0000000000002dea                __fmt_fp
                0x0000000000002dea                __fmt_x
                0x0000000000002dea                __fmt_a

.text.__dummy_fmts%185
                0x0000000000002dee        0x4
 .text.__dummy_fmts
                0x0000000000002dee        0x4 c:/program files/microchip/xc32/v4.60/bin/bin/../../lib/gcc/pic32c/8.3.1/../../../../pic32c/lib/thumb/v7e-m+fp/hard\libg-musl.a(__printf_core.o)
                0x0000000000002dee                __fmt_s

.text.__dummy%186
                0x0000000000002df2        0x4
 .text.__dummy  0x0000000000002df2        0x4 c:/program files/microchip/xc32/v4.60/bin/bin/../../lib/gcc/pic32c/8.3.1/../../../../pic32c/lib/thumb/v7e-m+fp/hard\libg-musl.a(stdin.o)
                0x0000000000002df2                __stdio_seek_rw

.text%187       0x0000000000002df8        0x4
 .text          0x0000000000002df8        0x4 c:/program files/microchip/xc32/v4.60/bin/bin/../../lib/gcc/pic32c/8.3.1/thumb/v7e-m+fp/hard\libgcc.a(_dvmd_tls.o)
                0x0000000000002df8                __aeabi_idiv0
                0x0000000000002df8                __aeabi_ldiv0

.text.lseek%188
                0x0000000000002dfc        0x4
 .text.lseek    0x0000000000002dfc        0x4 c:/program files/microchip/xc32/v4.60/bin/bin/../../lib/gcc/pic32c/8.3.1/../../../../pic32c/lib/thumb/v7e-m+fp/hard\libpic32c.a(lseek.o)
                0x0000000000002dfc                lseek

.text.TRNG_Initialize%189
                0x00000000000018c2        0x2
 .text.TRNG_Initialize
                0x00000000000018c2        0x2 build/default/debug/_ext/1865643529/plib_trng.o
                0x00000000000018c2                TRNG_Initialize

.text.Dummy_App_Func%190
                0x0000000000001d46        0x2
 .text.Dummy_App_Func
                0x0000000000001d46        0x2 build/default/debug/_ext/1171490990/startup_xc32.o
                0x0000000000001d46                _on_reset
                0x0000000000001d46                _on_bootstrap
                0x0000000000001d46                __xc32_on_reset
                0x0000000000001d46                Dummy_App_Func
                0x0000000000001d46                __xc32_on_bootstrap

.text.vPortFree%191
                0x00000000000020e6        0x2
 .text.vPortFree
                0x00000000000020e6        0x2 build/default/debug/_ext/1665200909/heap_1.o
                0x00000000000020e6                vPortFree

.text.__dummy_init_tls%192
                0x00000000000021d6        0x2
 .text.__dummy_init_tls
                0x00000000000021d6        0x2 c:/program files/microchip/xc32/v4.60/bin/bin/../../lib/gcc/pic32c/8.3.1/../../../../pic32c/lib/thumb/v7e-m+fp/hard\libpic32c.a(data_init.o)
                0x00000000000021d6                xc32_init_tls

.text.__dummy%193
                0x0000000000002396        0x2
 .text.__dummy  0x0000000000002396        0x2 c:/program files/microchip/xc32/v4.60/bin/bin/../../lib/gcc/pic32c/8.3.1/../../../../pic32c/lib/thumb/v7e-m+fp/hard\libg-musl.a(__libc_start_main.o)
                0x0000000000002396                __init_host

.text.__dummy%194
                0x000000000000249e        0x2
 .text.__dummy  0x000000000000249e        0x2 c:/program files/microchip/xc32/v4.60/bin/bin/../../lib/gcc/pic32c/8.3.1/../../../../pic32c/lib/thumb/v7e-m+fp/hard\libg-musl.a(__init_stdio.o)
                0x000000000000249e                __init_stdin
                0x000000000000249e                __init_stderr

.text.__dummy%195
                0x000000000000286a        0x2
 .text.__dummy  0x000000000000286a        0x2 c:/program files/microchip/xc32/v4.60/bin/bin/../../lib/gcc/pic32c/8.3.1/../../../../pic32c/lib/thumb/v7e-m+fp/hard\libg-musl.a(__stderr.o)
                0x000000000000286a                __stdio_seek
